(dp0
S'METTS MARK'
p1
(dp2
S'to_messages'
p3
I807
sS'deferral_payments'
p4
S'NaN'
p5
sS'expenses'
p6
I94299
sS'PCA_3'
p7
cnumpy.core.multiarray
scalar
p8
(cnumpy
dtype
p9
(S'f8'
p10
I0
I1
tp11
Rp12
(I3
S'<'
p13
NNNI-1
I-1
I0
tp14
bS'\xb9{\xdd\xe8\x05<\xa6@'
p15
tp16
Rp17
sS'poi'
p18
I00
sS'deferred_income'
p19
g5
sS'email_address'
p20
S'mark.metts@enron.com'
p21
sS'long_term_incentive'
p22
g5
sS'loan_advances'
p23
g5
sS'restricted_stock_deferred'
p24
g5
sS'PCA_2'
p25
g8
(g12
S'\x9f\xdb\x8f\x8c)r\xa1@'
p26
tp27
Rp28
sS'shared_receipt_with_poi'
p29
I702
sS'PCA_1'
p30
g8
(g12
S'\x8c\x02\xf6\xaf0\x1f9\xc1'
p31
tp32
Rp33
sS'from_messages'
p34
I29
sS'other'
p35
I1740
sS'director_fees'
p36
g5
sS'bonus'
p37
I600000
sS'total_stock_value'
p38
I585062
sS'from_poi_to_this_person'
p39
I38
sS'from_this_person_to_poi'
p40
I1
sS'restricted_stock'
p41
I585062
sS'salary'
p42
I365788
sS'total_payments'
p43
I1061827
sS'exercised_stock_options'
p44
g5
ssS'ELLIOTT STEVEN'
p45
(dp46
g3
g5
sg4
g5
sg6
I78552
sg7
g8
(g12
S'u\xa3w\xc4\x1f\xf5\x12A'
p47
tp48
Rp49
sg18
I00
sg19
I-400729
sg20
S'steven.elliott@enron.com'
p50
sg22
g5
sg23
g5
sg24
g5
sg25
g8
(g12
S'\x10\xf5\xd2\xa9Y\x0e,\xc1'
p51
tp52
Rp53
sg29
g5
sg30
g8
(g12
S'W\x85?\xc3\x1e\xc0HA'
p54
tp55
Rp56
sg34
g5
sg35
I12961
sg36
g5
sg37
I350000
sg38
I6678735
sg39
g5
sg40
g5
sg41
I1788391
sg42
I170941
sg43
I211725
sg44
I4890344
ssS'CORDES WILLIAM R'
p57
(dp58
g3
I764
sg4
g5
sg6
g5
sg7
g8
(g12
S'g,:\\7\xa9\xf0@'
p59
tp60
Rp61
sg18
I00
sg19
g5
sg20
S'bill.cordes@enron.com'
p62
sg22
g5
sg23
g5
sg24
g5
sg25
g8
(g12
S'\xd8>\x13B\xcc\xb22\xc1'
p63
tp64
Rp65
sg29
I58
sg30
g8
(g12
S'P!\xff\x07m\xf9.\xc1'
p66
tp67
Rp68
sg34
I12
sg35
g5
sg36
g5
sg37
g5
sg38
I1038185
sg39
I10
sg40
I0
sg41
I386335
sg42
g5
sg43
g5
sg44
I651850
ssS'HANNON KEVIN P'
p69
(dp70
g3
I1045
sg4
g5
sg6
I34039
sg7
g8
(g12
S'9 \x90\x94\x8c\xfcFA'
p71
tp72
Rp73
sg18
I01
sg19
I-3117011
sg20
S'kevin.hannon@enron.com'
p74
sg22
I1617011
sg23
g5
sg24
g5
sg25
g8
(g12
S'\x10\xd8\xa67\xa0\xef\xec\xc0'
p75
tp76
Rp77
sg29
I1035
sg30
g8
(g12
S'\xb9\x0c`\xb2\x8f\xc1NA'
p78
tp79
Rp80
sg34
I32
sg35
I11350
sg36
g5
sg37
I1500000
sg38
I6391065
sg39
I32
sg40
I21
sg41
I853064
sg42
I243293
sg43
I288682
sg44
I5538001
ssS'MORDAUNT KRISTINA M'
p81
(dp82
g3
g5
sg4
g5
sg6
I35018
sg7
g8
(g12
S'\x99\x91\xe1\xa5\xe0&\xda@'
p83
tp84
Rp85
sg18
I00
sg19
g5
sg20
S'kristina.mordaunt@enron.com'
p86
sg22
g5
sg23
g5
sg24
g5
sg25
g8
(g12
S'!c%Ou\x05\x1f\xc1'
p87
tp88
Rp89
sg29
g5
sg30
g8
(g12
S'\x89%\xcaqz@9\xc1'
p90
tp91
Rp92
sg34
g5
sg35
I1411
sg36
g5
sg37
I325000
sg38
I208510
sg39
g5
sg40
g5
sg41
I208510
sg42
I267093
sg43
I628522
sg44
g5
ssS'MEYER ROCKFORD G'
p93
(dp94
g3
I232
sg4
I1848227
sg6
g5
sg7
g8
(g12
S'\xbeI\x16\x18B\x01!\xc1'
p95
tp96
Rp97
sg18
I00
sg19
g5
sg20
S'rockford.meyer@enron.com'
p98
sg22
g5
sg23
g5
sg24
g5
sg25
g8
(g12
S'\xc4Cm6\xec\x0e\x17A'
p99
tp100
Rp101
sg29
I22
sg30
g8
(g12
S'\xe6\x14\xaa\xf4\xaa\xa31\xc1'
p102
tp103
Rp104
sg34
I28
sg35
g5
sg36
g5
sg37
g5
sg38
I955873
sg39
I0
sg40
I0
sg41
I462384
sg42
g5
sg43
I1848227
sg44
I493489
ssS'MCMAHON JEFFREY'
p105
(dp106
g3
I2355
sg4
g5
sg6
I137108
sg7
g8
(g12
S'\x176\xf4\x91\xc8\xac\x05\xc1'
p107
tp108
Rp109
sg18
I00
sg19
g5
sg20
S'jeffrey.mcmahon@enron.com'
p110
sg22
I694862
sg23
g5
sg24
g5
sg25
g8
(g12
S'\xfb\xce\xa1\xaf\xaelKA'
p111
tp112
Rp113
sg29
I2228
sg30
g8
(g12
S'\xdc\xc1\xd0\xc7\x0ev\x1d\xc1'
p114
tp115
Rp116
sg34
I48
sg35
I297353
sg36
g5
sg37
I2600000
sg38
I1662855
sg39
I58
sg40
I26
sg41
I558801
sg42
I370448
sg43
I4099771
sg44
I1104054
ssS'HORTON STANLEY C'
p117
(dp118
g3
I2350
sg4
I3131860
sg6
g5
sg7
g8
(g12
S'\x17\x03Zg\xd6#2\xc1'
p119
tp120
Rp121
sg18
I00
sg19
g5
sg20
S'stanley.horton@enron.com'
p122
sg22
g5
sg23
g5
sg24
g5
sg25
g8
(g12
S'2\xb5O\xfa:G5A'
p123
tp124
Rp125
sg29
I1074
sg30
g8
(g12
S'\xa8\xbb\x8eN\xb77KA'
p126
tp127
Rp128
sg34
I1073
sg35
g5
sg36
g5
sg37
g5
sg38
I7256648
sg39
I44
sg40
I15
sg41
I2046079
sg42
g5
sg43
I3131860
sg44
I5210569
ssS'PIPER GREGORY F'
p129
(dp130
g3
I1238
sg4
I1130036
sg6
I43057
sg7
g8
(g12
S'\r4\xc2\xf8\xc4\xf6\x13\xc1'
p131
tp132
Rp133
sg18
I00
sg19
I-33333
sg20
S'greg.piper@enron.com'
p134
sg22
g5
sg23
g5
sg24
I-409554
sg25
g8
(g12
S'\xcfW\xb4be\xf0\x1cA'
p135
tp136
Rp137
sg29
I742
sg30
g8
(g12
S"\xa7\xcb\x92\xda6F'\xc1"
p138
tp139
Rp140
sg34
I222
sg35
I778
sg36
g5
sg37
I400000
sg38
I880290
sg39
I61
sg40
I48
sg41
I409554
sg42
I197091
sg43
I1737629
sg44
I880290
ssS'HUMPHREY GENE E'
p141
(dp142
g3
I128
sg4
I2964506
sg6
I4994
sg7
g8
(g12
S'\xc7\xeaqdV&0\xc1'
p143
tp144
Rp145
sg18
I00
sg19
g5
sg20
S'gene.humphrey@enron.com'
p146
sg22
g5
sg23
g5
sg24
g5
sg25
g8
(g12
S'\xceM\xda\x90~\xc15A'
p147
tp148
Rp149
sg29
I119
sg30
g8
(g12
S'Ei\xf5x\xc8\x9d#A'
p150
tp151
Rp152
sg34
I17
sg35
g5
sg36
g5
sg37
g5
sg38
I2282768
sg39
I10
sg40
I17
sg41
g5
sg42
I130724
sg43
I3100224
sg44
I2282768
ssS'UMANOFF ADAM S'
p153
(dp154
g3
I111
sg4
g5
sg6
I53122
sg7
g8
(g12
S';wg\x85\xca\x8f\xef@'
p155
tp156
Rp157
sg18
I00
sg19
g5
sg20
S'adam.umanoff@enron.com'
p158
sg22
g5
sg23
g5
sg24
g5
sg25
g8
(g12
S'\xa7+&o\x15\xde\x02A'
p159
tp160
Rp161
sg29
I41
sg30
g8
(g12
S'^\x86\x19=\xa0\x109\xc1'
p162
tp163
Rp164
sg34
I18
sg35
g5
sg36
g5
sg37
I788750
sg38
g5
sg39
I12
sg40
I0
sg41
g5
sg42
I288589
sg43
I1130461
sg44
g5
ssS'BLACHMAN JEREMY M'
p165
(dp166
g3
I2475
sg4
g5
sg6
I84208
sg7
g8
(g12
S'\xec\xcci\x99\xdbu\r\xc1'
p167
tp168
Rp169
sg18
I00
sg19
g5
sg20
S'jeremy.blachman@enron.com'
p170
sg22
I831809
sg23
g5
sg24
g5
sg25
g8
(g12
S'vE5\xf5\x93\x88,A'
p171
tp172
Rp173
sg29
I2326
sg30
g8
(g12
S'R\x12\xf6\xfcS\x85*\xc1'
p174
tp175
Rp176
sg34
I14
sg35
I272
sg36
g5
sg37
I850000
sg38
I954354
sg39
I25
sg40
I2
sg41
I189041
sg42
I248546
sg43
I2014835
sg44
I765313
ssS'SUNDE MARTIN'
p177
(dp178
g3
I2647
sg4
g5
sg6
g5
sg7
g8
(g12
S's\xbf\xb2=d\x9d\xfc\xc0'
p179
tp180
Rp181
sg18
I00
sg19
g5
sg20
S'marty.sunde@enron.com'
p182
sg22
I476451
sg23
g5
sg24
g5
sg25
g8
(g12
S'\xfa\xe7\x97?\x98\xac\x1cA'
p183
tp184
Rp185
sg29
I2565
sg30
g8
(g12
S'\x1f\x8aS\x1fK\x079\xc1'
p186
tp187
Rp188
sg34
I38
sg35
I111122
sg36
g5
sg37
I700000
sg38
I698920
sg39
I37
sg40
I13
sg41
I698920
sg42
I257486
sg43
I1545059
sg44
g5
ssS'GIBBS DANA R'
p189
(dp190
g3
I169
sg4
I504610
sg6
g5
sg7
g8
(g12
S"[\xd6\xbe\xd4'\xe9\x13\xc1"
p191
tp192
Rp193
sg18
I00
sg19
g5
sg20
S'dana.gibbs@enron.com'
p194
sg22
I461912
sg23
g5
sg24
g5
sg25
g8
(g12
S'uW\xd0\xaa\xe3\xa3\x19\xc1'
p195
tp196
Rp197
sg29
I23
sg30
g8
(g12
S'Q\x8a\x8a^\x00\x0c!A'
p198
tp199
Rp200
sg34
I12
sg35
g5
sg36
g5
sg37
g5
sg38
I2218275
sg39
I0
sg40
I0
sg41
g5
sg42
g5
sg43
I966522
sg44
I2218275
ssS'LOWRY CHARLES P'
p201
(dp202
g3
g5
sg4
g5
sg6
g5
sg7
g8
(g12
S'/\xf5 \xaeEs\xf3@'
p203
tp204
Rp205
sg18
I00
sg19
g5
sg20
g5
sg22
g5
sg23
g5
sg24
I-153686
sg25
g8
(g12
S'9\xad\x8a\xd2\xe6\x9c2\xc1'
p206
tp207
Rp208
sg29
g5
sg30
g8
(g12
S'\x8b\xae\xa8\xa2\xcd\xbf3\xc1'
p209
tp210
Rp211
sg34
g5
sg35
g5
sg36
g5
sg37
g5
sg38
I372205
sg39
g5
sg40
g5
sg41
I153686
sg42
g5
sg43
g5
sg44
I372205
ssS'COLWELL WESLEY'
p212
(dp213
g3
I1758
sg4
I27610
sg6
I16514
sg7
g8
(g12
S'\xf9\x7f[\r\x0e\x05\x0eA'
p214
tp215
Rp216
sg18
I01
sg19
I-144062
sg20
S'wes.colwell@enron.com'
p217
sg22
g5
sg23
g5
sg24
g5
sg25
g8
(g12
S'e\xeb\x9a\x8b\xae\xca$A'
p218
tp219
Rp220
sg29
I1132
sg30
g8
(g12
S'\xd6\x08\x16\xa9D\xd08\xc1'
p221
tp222
Rp223
sg34
I40
sg35
I101740
sg36
g5
sg37
I1200000
sg38
I698242
sg39
I240
sg40
I11
sg41
I698242
sg42
I288542
sg43
I1490344
sg44
g5
ssS'MULLER MARK S'
p224
(dp225
g3
I136
sg4
I842924
sg6
g5
sg7
g8
(g12
S'p\xa6\xbdF\x80;\xe6@'
p226
tp227
Rp228
sg18
I00
sg19
I-719000
sg20
S's..muller@enron.com'
p229
sg22
I1725545
sg23
g5
sg24
g5
sg25
g8
(g12
S'\x8fj\xeb9\xccZ@A'
p230
tp231
Rp232
sg29
I114
sg30
g8
(g12
S'_\x8a\xde\xcf\xe06 \xc1'
p233
tp234
Rp235
sg34
I16
sg35
I947
sg36
g5
sg37
I1100000
sg38
I1416848
sg39
I12
sg40
I0
sg41
I360528
sg42
I251654
sg43
I3202070
sg44
I1056320
ssS'JACKSON CHARLENE R'
p236
(dp237
g3
I258
sg4
g5
sg6
I10181
sg7
g8
(g12
S'\x169W\xfa\x94\x05\xc7@'
p238
tp239
Rp240
sg18
I00
sg19
g5
sg20
S'charlene.jackson@enron.com'
p241
sg22
g5
sg23
g5
sg24
g5
sg25
g8
(g12
S'=\x08\xf6\x97E\xcb"\xc1'
p242
tp243
Rp244
sg29
I117
sg30
g8
(g12
S'\x83\xb3,\xc9\x04v6\xc1'
p245
tp246
Rp247
sg34
I56
sg35
I2435
sg36
g5
sg37
I250000
sg38
I725735
sg39
I25
sg40
I19
sg41
I540672
sg42
I288558
sg43
I551174
sg44
I185063
ssS'WESTFAHL RICHARD K'
p248
(dp249
g3
g5
sg4
g5
sg6
I51870
sg7
g8
(g12
S'\x1eg<\xed\x99$\x03\xc1'
p250
tp251
Rp252
sg18
I00
sg19
I-10800
sg20
S'dick.westfahl@enron.com'
p253
sg22
I256191
sg23
g5
sg24
g5
sg25
g8
(g12
S'}\xe0>bq\xd5 \xc1'
p254
tp255
Rp256
sg29
g5
sg30
g8
(g12
S',\x1e\xdd^\x90N9\xc1'
p257
tp258
Rp259
sg34
g5
sg35
I401130
sg36
g5
sg37
g5
sg38
I384930
sg39
g5
sg40
g5
sg41
I384930
sg42
I63744
sg43
I762135
sg44
g5
ssS'WALTERS GARETH W'
p260
(dp261
g3
g5
sg4
I53625
sg6
I33785
sg7
g8
(g12
S'\xdeJ\xca\x1f\x8d[\xd6@'
p262
tp263
Rp264
sg18
I00
sg19
g5
sg20
g5
sg22
g5
sg23
g5
sg24
g5
sg25
g8
(g12
S'\x06=\x9d\xe2\xd6\xa81\xc1'
p265
tp266
Rp267
sg29
g5
sg30
g8
(g12
S'y\xdf\xb1\xa8\xaci#\xc1'
p268
tp269
Rp270
sg34
g5
sg35
g5
sg36
g5
sg37
g5
sg38
I1030329
sg39
g5
sg40
g5
sg41
g5
sg42
g5
sg43
I87410
sg44
I1030329
ssS'WALLS JR ROBERT H'
p271
(dp272
g3
I671
sg4
g5
sg6
I50936
sg7
g8
(g12
S'&R]\x9b\xcb&\x13\xc1'
p273
tp274
Rp275
sg18
I00
sg19
g5
sg20
S'rob.walls@enron.com'
p276
sg22
I540751
sg23
g5
sg24
g5
sg25
g8
(g12
S'/<`\xab~\xa2$A'
p277
tp278
Rp279
sg29
I215
sg30
g8
(g12
S'\xf9\xf6H{2\xa5DA'
p280
tp281
Rp282
sg34
I146
sg35
I2
sg36
g5
sg37
I850000
sg38
I5898997
sg39
I17
sg40
I0
sg41
I1552453
sg42
I357091
sg43
I1798780
sg44
I4346544
ssS'KITCHEN LOUISE'
p283
(dp284
g3
I8305
sg4
g5
sg6
I5774
sg7
g8
(g12
S'@\xb8\x1f|\xf7\x9d\x12A'
p285
tp286
Rp287
sg18
I00
sg19
g5
sg20
S'louise.kitchen@enron.com'
p288
sg22
g5
sg23
g5
sg24
g5
sg25
g8
(g12
S'\xa4:\xbb\xfd\x87NIA'
p289
tp290
Rp291
sg29
I3669
sg30
g8
(g12
S'zo\xdc1\xc3\xeb6\xc1'
p292
tp293
Rp294
sg34
I1728
sg35
I93925
sg36
g5
sg37
I3100000
sg38
I547143
sg39
I251
sg40
I194
sg41
I466101
sg42
I271442
sg43
I3471141
sg44
I81042
ssS'CHAN RONNIE'
p295
(dp296
g3
g5
sg4
g5
sg6
g5
sg7
g8
(g12
S']\xf3j\xf0\x8d\x81\x05A'
p297
tp298
Rp299
sg18
I00
sg19
I-98784
sg20
g5
sg22
g5
sg23
g5
sg24
I-32460
sg25
g8
(g12
S'\xb1CK\x19\x9d]2\xc1'
p300
tp301
Rp302
sg29
g5
sg30
g8
(g12
S"' #\xd7\xe2Z9\xc1"
p303
tp304
Rp305
sg34
g5
sg35
g5
sg36
I98784
sg37
g5
sg38
g5
sg39
g5
sg40
g5
sg41
I32460
sg42
g5
sg43
g5
sg44
g5
ssS'BELFER ROBERT'
p306
(dp307
g3
g5
sg4
I-102500
sg6
g5
sg7
g8
(g12
S'\x95\xef\x83U\xd4%\xed@'
p308
tp309
Rp310
sg18
I00
sg19
g5
sg20
g5
sg22
g5
sg23
g5
sg24
I44093
sg25
g8
(g12
S')V\xb2]d%1\xc1'
p311
tp312
Rp313
sg29
g5
sg30
g8
(g12
S'Ud[\x9a\x81[9\xc1'
p314
tp315
Rp316
sg34
g5
sg35
g5
sg36
I3285
sg37
g5
sg38
I-44093
sg39
g5
sg40
g5
sg41
g5
sg42
g5
sg43
I102500
sg44
I3285
ssS'SHANKMAN JEFFREY A'
p317
(dp318
g3
I3221
sg4
g5
sg6
I178979
sg7
g8
(g12
S'\x97N\xf1@\xa1P\xf8\xc0'
p319
tp320
Rp321
sg18
I00
sg19
g5
sg20
S'jeffrey.shankman@enron.com'
p322
sg22
I554422
sg23
g5
sg24
g5
sg25
g8
(g12
S'\xd3\xb4+8\x7f\x1cBA'
p323
tp324
Rp325
sg29
I1730
sg30
g8
(g12
S'&\xb7J\x99T!\x04\xc1'
p326
tp327
Rp328
sg34
I2681
sg35
I1191
sg36
g5
sg37
I2000000
sg38
I2072035
sg39
I94
sg40
I83
sg41
I630137
sg42
I304110
sg43
I3038702
sg44
I1441898
ssS'WODRASKA JOHN'
p329
(dp330
g3
g5
sg4
g5
sg6
g5
sg7
g8
(g12
S'\xf3X\x0e\xb7\x89Y\xdd@'
p331
tp332
Rp333
sg18
I00
sg19
g5
sg20
S'john.wodraska@enron.com'
p334
sg22
g5
sg23
g5
sg24
g5
sg25
g8
(g12
S'\x05c\x17`K\xfd/\xc1'
p335
tp336
Rp337
sg29
g5
sg30
g8
(g12
S'\x08\xe5\x96\x90+e9\xc1'
p338
tp339
Rp340
sg34
g5
sg35
I189583
sg36
g5
sg37
g5
sg38
g5
sg39
g5
sg40
g5
sg41
g5
sg42
g5
sg43
I189583
sg44
g5
ssS'BERGSIEKER RICHARD P'
p341
(dp342
g3
I383
sg4
g5
sg6
I59175
sg7
g8
(g12
S'\x03\x8bBiL,\x18A'
p343
tp344
Rp345
sg18
I00
sg19
I-485813
sg20
S'rick.bergsieker@enron.com'
p346
sg22
I180250
sg23
g5
sg24
g5
sg25
g8
(g12
S';K\xe7\xc9w)\x1f\xc1'
p347
tp348
Rp349
sg29
I233
sg30
g8
(g12
S'\xcffE\xd5J\xf18\xc1'
p350
tp351
Rp352
sg34
I59
sg35
I427316
sg36
g5
sg37
I250000
sg38
I659249
sg39
I4
sg40
I0
sg41
I659249
sg42
I187922
sg43
I618850
sg44
g5
ssS'URQUHART JOHN A'
p353
(dp354
g3
g5
sg4
g5
sg6
I228656
sg7
g8
(g12
S'*\xde\x8be\x04\xe3\xe6@'
p355
tp356
Rp357
sg18
I00
sg19
I-36666
sg20
g5
sg22
g5
sg23
g5
sg24
g5
sg25
g8
(g12
S'\xe0cP\x9b\xae\xdb.\xc1'
p358
tp359
Rp360
sg29
g5
sg30
g8
(g12
S'N\x08\xe0\xe8c]9\xc1'
p361
tp362
Rp363
sg34
g5
sg35
g5
sg36
I36666
sg37
g5
sg38
g5
sg39
g5
sg40
g5
sg41
g5
sg42
g5
sg43
I228656
sg44
g5
ssS'BIBI PHILIPPE A'
p364
(dp365
g3
I1607
sg4
g5
sg6
I38559
sg7
g8
(g12
S'B\x98\x9ci\xbf\x0c\n\xc1'
p366
tp367
Rp368
sg18
I00
sg19
g5
sg20
S'philippe.bibi@enron.com'
p369
sg22
I369721
sg23
g5
sg24
g5
sg25
g8
(g12
S'\xea\x868\x81M9/A'
p370
tp371
Rp372
sg29
I1336
sg30
g8
(g12
S'\xed\xe5\x16;aX\x04\xc1'
p373
tp374
Rp375
sg34
I40
sg35
I425688
sg36
g5
sg37
I1000000
sg38
I1843816
sg39
I23
sg40
I8
sg41
I378082
sg42
I213625
sg43
I2047593
sg44
I1465734
ssS'RIEKER PAULA H'
p376
(dp377
g3
I1328
sg4
I214678
sg6
I33271
sg7
g8
(g12
S'D\x8f\x1a\x1c\x0e\xca\xe8@'
p378
tp379
Rp380
sg18
I01
sg19
I-100000
sg20
S'paula.rieker@enron.com'
p381
sg22
g5
sg23
g5
sg24
g5
sg25
g8
(g12
S'\xf8v\xaf\xe6\x892\xed@'
p382
tp383
Rp384
sg29
I1258
sg30
g8
(g12
S'\xa0\xc6\x932k\xe0\xb9\xc0'
p385
tp386
Rp387
sg34
I82
sg35
I1950
sg36
g5
sg37
I700000
sg38
I1918887
sg39
I35
sg40
I48
sg41
I283649
sg42
I249201
sg43
I1099100
sg44
I1635238
ssS'WHALEY DAVID A'
p388
(dp389
g3
g5
sg4
g5
sg6
g5
sg7
g8
(g12
S'\xd8\x92\xa2\xa3\x9a-\xf6@'
p390
tp391
Rp392
sg18
I00
sg19
g5
sg20
g5
sg22
g5
sg23
g5
sg24
g5
sg25
g8
(g12
S'\xaf\xc6\xa2\xd2|\x872\xc1'
p393
tp394
Rp395
sg29
g5
sg30
g8
(g12
S"'\x07i\xee\xdd\xea7\xc1"
p396
tp397
Rp398
sg34
g5
sg35
g5
sg36
g5
sg37
g5
sg38
I98718
sg39
g5
sg40
g5
sg41
g5
sg42
g5
sg43
g5
sg44
I98718
ssS'BECK SALLY W'
p399
(dp400
g3
I7315
sg4
g5
sg6
I37172
sg7
g8
(g12
S'>\x8e{L<w\xf3@'
p401
tp402
Rp403
sg18
I00
sg19
g5
sg20
S'sally.beck@enron.com'
p404
sg22
g5
sg23
g5
sg24
g5
sg25
g8
(g12
S'n\x98\x17\x80\x1e+\xdc\xc0'
p405
tp406
Rp407
sg29
I2639
sg30
g8
(g12
S'\xaa\xa5x;&\x1c9\xc1'
p408
tp409
Rp410
sg34
I4343
sg35
I566
sg36
g5
sg37
I700000
sg38
I126027
sg39
I144
sg40
I386
sg41
I126027
sg42
I231330
sg43
I969068
sg44
g5
ssS'HAUG DAVID L'
p411
(dp412
g3
I573
sg4
g5
sg6
I475
sg7
g8
(g12
S'\xe4!\xa4\x15\x86\x1f\xf7@'
p413
tp414
Rp415
sg18
I00
sg19
g5
sg20
S'david.haug@enron.com'
p416
sg22
g5
sg23
g5
sg24
g5
sg25
g8
(g12
S'\xdb\n\xfd\xd2&~2\xc1'
p417
tp418
Rp419
sg29
I471
sg30
g8
(g12
S'/\x0c\x1d}\x04l9\xc1'
p420
tp421
Rp422
sg34
I19
sg35
g5
sg36
g5
sg37
g5
sg38
I2217299
sg39
I4
sg40
I7
sg41
I2217299
sg42
g5
sg43
I475
sg44
g5
ssS'ECHOLS JOHN B'
p423
(dp424
g3
g5
sg4
g5
sg6
I21530
sg7
g8
(g12
S"B\xb3aN\xaa0'\xc1"
p425
tp426
Rp427
sg18
I00
sg19
g5
sg20
S'john.echols@enron.com'
p428
sg22
I2234774
sg23
g5
sg24
g5
sg25
g8
(g12
S'R\xe4\xc2\x91Rb2A'
p429
tp430
Rp431
sg29
g5
sg30
g8
(g12
S'}3_\xca=\xa6/\xc1'
p432
tp433
Rp434
sg34
g5
sg35
I53775
sg36
g5
sg37
I200000
sg38
I1008941
sg39
g5
sg40
g5
sg41
I407503
sg42
I182245
sg43
I2692324
sg44
I601438
ssS'MENDELSOHN JOHN'
p435
(dp436
g3
g5
sg4
g5
sg6
I148
sg7
g8
(g12
S'w~\xb3\xc1\xb2\xff\x05A'
p437
tp438
Rp439
sg18
I00
sg19
I-103750
sg20
g5
sg22
g5
sg23
g5
sg24
g5
sg25
g8
(g12
S')E\x16\x8ee[2\xc1'
p440
tp441
Rp442
sg29
g5
sg30
g8
(g12
S'\xbb6a\xc6\x04Z9\xc1'
p443
tp444
Rp445
sg34
g5
sg35
g5
sg36
I103750
sg37
g5
sg38
g5
sg39
g5
sg40
g5
sg41
g5
sg42
g5
sg43
I148
sg44
g5
ssS'HICKERSON GARY J'
p446
(dp447
g3
I1320
sg4
g5
sg6
I98849
sg7
g8
(g12
S'\x9b\xfe\xd4\xc0&n\x02A'
p448
tp449
Rp450
sg18
I00
sg19
g5
sg20
S'gary.hickerson@enron.com'
p451
sg22
I69223
sg23
g5
sg24
g5
sg25
g8
(g12
S'W\x9d\xc2~\x14\xc55A'
p452
tp453
Rp454
sg29
I900
sg30
g8
(g12
S'r\xfdP\x17\xdd\xb38\xc1'
p455
tp456
Rp457
sg34
I27
sg35
I1936
sg36
g5
sg37
I1700000
sg38
I441096
sg39
I40
sg40
I1
sg41
I441096
sg42
I211788
sg43
I2081796
sg44
g5
ssS'LEWIS RICHARD'
p458
(dp459
g3
I952
sg4
g5
sg6
g5
sg7
g8
(g12
S'\xf87j\xc2\x11\\\xed@'
p460
tp461
Rp462
sg18
I00
sg19
g5
sg20
S'richard.lewis@enron.com'
p463
sg22
g5
sg23
g5
sg24
g5
sg25
g8
(g12
S'\x83\x04\xb5\xb3Y\xc22\xc1'
p464
tp465
Rp466
sg29
I739
sg30
g8
(g12
S'\x97\xd3$\xf7u\xeb(\xc1'
p467
tp468
Rp469
sg34
I26
sg35
g5
sg36
g5
sg37
g5
sg38
I850477
sg39
I10
sg40
I0
sg41
g5
sg42
g5
sg43
g5
sg44
I850477
ssS'HAYES ROBERT E'
p470
(dp471
g3
I504
sg4
I7961
sg6
g5
sg7
g8
(g12
S'\x0cXNF\x8d\x7f\xf6@'
p472
tp473
Rp474
sg18
I00
sg19
g5
sg20
S'robert.hayes@enron.com'
p475
sg22
g5
sg23
g5
sg24
g5
sg25
g8
(g12
S'\x8eF\xef\x19\xd6d2\xc1'
p476
tp477
Rp478
sg29
I50
sg30
g8
(g12
S'\xf3\x1d\x06\x19\xbfk9\xc1'
p479
tp480
Rp481
sg34
I12
sg35
g5
sg36
g5
sg37
g5
sg38
I151418
sg39
I16
sg40
I0
sg41
I151418
sg42
g5
sg43
I7961
sg44
g5
ssS'MCCARTY DANNY J'
p482
(dp483
g3
I1433
sg4
g5
sg6
g5
sg7
g8
(g12
S'wX\xf2\x04<\x89\xf0@'
p484
tp485
Rp486
sg18
I00
sg19
g5
sg20
S'danny.mccarty@enron.com'
p487
sg22
g5
sg23
g5
sg24
g5
sg25
g8
(g12
S'_\x0f\xcfQ\xc7\xb32\xc1'
p488
tp489
Rp490
sg29
I508
sg30
g8
(g12
S'\x93M\x0f9\xb0\x97.\xc1'
p491
tp492
Rp493
sg34
I215
sg35
g5
sg36
g5
sg37
g5
sg38
I758931
sg39
I25
sg40
I2
sg41
I94556
sg42
g5
sg43
g5
sg44
I664375
ssS'KOPPER MICHAEL J'
p494
(dp495
g3
g5
sg4
g5
sg6
I118134
sg7
g8
(g12
S'Q1w\xa9\x84\x82\x1b\xc1'
p496
tp497
Rp498
sg18
I01
sg19
g5
sg20
S'michael.kopper@enron.com'
p499
sg22
I602671
sg23
g5
sg24
g5
sg25
g8
(g12
S'\xe4\x19\x03v\xd5\x8c6A'
p500
tp501
Rp502
sg29
g5
sg30
g8
(g12
S'FX\xact\xca\xd88\xc1'
p503
tp504
Rp505
sg34
g5
sg35
I907502
sg36
g5
sg37
I800000
sg38
I985032
sg39
g5
sg40
g5
sg41
I985032
sg42
I224305
sg43
I2652612
sg44
g5
ssS'LEFF DANIEL P'
p506
(dp507
g3
I2822
sg4
g5
sg6
g5
sg7
g8
(g12
S'Z\xe2!@\x00=\x16\xc1'
p508
tp509
Rp510
sg18
I00
sg19
g5
sg20
S'dan.leff@enron.com'
p511
sg22
I1387399
sg23
g5
sg24
g5
sg25
g8
(g12
S'\xb12\x89\xb0\xaf48A'
p512
tp513
Rp514
sg29
I2672
sg30
g8
(g12
S'\xec~\xac9\x92\xcb8\xc1'
p515
tp516
Rp517
sg34
I63
sg35
I3083
sg36
g5
sg37
I1000000
sg38
I360528
sg39
I67
sg40
I14
sg41
I360528
sg42
I273746
sg43
I2664228
sg44
g5
ssS'BERBERIAN DAVID'
p518
(dp519
g3
g5
sg4
g5
sg6
I11892
sg7
g8
(g12
S'+V\xe2_\xfa8\xe8\xc0'
p520
tp521
Rp522
sg18
I00
sg19
g5
sg20
S'david.berberian@enron.com'
p523
sg22
g5
sg23
g5
sg24
g5
sg25
g8
(g12
S'ZdS\x02\xa4\xf4/\xc1'
p524
tp525
Rp526
sg29
g5
sg30
g8
(g12
S'\xb9\x9d\xae\x12\x81;\xe4\xc0'
p527
tp528
Rp529
sg34
g5
sg35
g5
sg36
g5
sg37
g5
sg38
I2493616
sg39
g5
sg40
g5
sg41
I869220
sg42
I216582
sg43
I228474
sg44
I1624396
ssS'DETMERING TIMOTHY J'
p530
(dp531
g3
g5
sg4
I875307
sg6
I52255
sg7
g8
(g12
S'\xe2\x08\x9e9\xc0A\x1aA'
p532
tp533
Rp534
sg18
I00
sg19
I-775241
sg20
S'timothy.detmering@enron.com'
p535
sg22
I415657
sg23
g5
sg24
I-315068
sg25
g8
(g12
S'\xa1(\x02k\x82\x82\xf0@'
p536
tp537
Rp538
sg29
g5
sg30
g8
(g12
S'\xa7\x9c\xc5y\xe7%\x19A'
p539
tp540
Rp541
sg34
g5
sg35
I1105
sg36
g5
sg37
I425000
sg38
I2027865
sg39
g5
sg40
g5
sg41
I315068
sg42
I210500
sg43
I1204583
sg44
I2027865
ssS'WAKEHAM JOHN'
p542
(dp543
g3
g5
sg4
g5
sg6
I103773
sg7
g8
(g12
S'\xbb\x8d!.\xd5\x81\xd5@'
p544
tp545
Rp546
sg18
I00
sg19
g5
sg20
g5
sg22
g5
sg23
g5
sg24
g5
sg25
g8
(g12
S'9O\xb0\xabo^/\xc1'
p547
tp548
Rp549
sg29
g5
sg30
g8
(g12
S'\x88\x19(\xd8Qd9\xc1'
p550
tp551
Rp552
sg34
g5
sg35
g5
sg36
I109298
sg37
g5
sg38
g5
sg39
g5
sg40
g5
sg41
g5
sg42
g5
sg43
I213071
sg44
g5
ssS'POWERS WILLIAM'
p553
(dp554
g3
I653
sg4
g5
sg6
g5
sg7
g8
(g12
S'\x18\x14\xc6)\xdf\xad\xfa@'
p555
tp556
Rp557
sg18
I00
sg19
I-17500
sg20
S'ken.powers@enron.com'
p558
sg22
g5
sg23
g5
sg24
g5
sg25
g8
(g12
S'\x10p(\x8b\xb5y2\xc1'
p559
tp560
Rp561
sg29
I12
sg30
g8
(g12
S'Yr\xfa,\xffh9\xc1'
p562
tp563
Rp564
sg34
I26
sg35
g5
sg36
I17500
sg37
g5
sg38
g5
sg39
I0
sg40
I0
sg41
g5
sg42
g5
sg43
g5
sg44
g5
ssS'GOLD JOSEPH'
p565
(dp566
g3
g5
sg4
g5
sg6
g5
sg7
g8
(g12
S'\xfbh\xb88\xc1l\x13\xc1'
p567
tp568
Rp569
sg18
I00
sg19
g5
sg20
S'joe.gold@enron.com'
p570
sg22
I304805
sg23
g5
sg24
g5
sg25
g8
(g12
S'\x82\x856?2\xb9.A'
p571
tp572
Rp573
sg29
g5
sg30
g8
(g12
S'\x90\xb3\xa4D&G2\xc1'
p574
tp575
Rp576
sg34
g5
sg35
I819288
sg36
g5
sg37
I750000
sg38
I877611
sg39
g5
sg40
g5
sg41
I441096
sg42
I272880
sg43
I2146973
sg44
I436515
ssS'BANNANTINE JAMES M'
p577
(dp578
g3
I566
sg4
g5
sg6
I56301
sg7
g8
(g12
S'\xb8\xf6\xf2P\x82)\x17\xc1'
p579
tp580
Rp581
sg18
I00
sg19
I-5104
sg20
S'james.bannantine@enron.com'
p582
sg22
g5
sg23
g5
sg24
I-560222
sg25
g8
(g12
S'!\x8f\xce]\x0f\x82\x1e\xc1'
p583
tp584
Rp585
sg29
I465
sg30
g8
(g12
S'\x8e\xb707t0BA'
p586
tp587
Rp588
sg34
I29
sg35
I864523
sg36
g5
sg37
g5
sg38
I5243487
sg39
I39
sg40
I0
sg41
I1757552
sg42
I477
sg43
I916197
sg44
I4046157
ssS'DUNCAN JOHN H'
p589
(dp590
g3
g5
sg4
g5
sg6
g5
sg7
g8
(g12
S'\x89\x89_~w\x02\xf2@'
p591
tp592
Rp593
sg18
I00
sg19
I-25000
sg20
g5
sg22
g5
sg23
g5
sg24
g5
sg25
g8
(g12
S'\x13\xfd\xbd\xc8+\x8e1\xc1'
p594
tp595
Rp596
sg29
g5
sg30
g8
(g12
S'K&\x80\xc6n\xba3\xc1'
p597
tp598
Rp599
sg34
g5
sg35
g5
sg36
I102492
sg37
g5
sg38
I371750
sg39
g5
sg40
g5
sg41
g5
sg42
g5
sg43
I77492
sg44
I371750
ssS'SHAPIRO RICHARD S'
p600
(dp601
g3
I15149
sg4
g5
sg6
I137767
sg7
g8
(g12
S'\xaa\x9dDY\x1f\x1a\xa0@'
p602
tp603
Rp604
sg18
I00
sg19
g5
sg20
S'richard.shapiro@enron.com'
p605
sg22
g5
sg23
g5
sg24
g5
sg25
g8
(g12
S'\x96\x1d\r\x8e\x9ef\xc5@'
p606
tp607
Rp608
sg29
I4527
sg30
g8
(g12
S'\xdf\xb6\x96\x17\x19\xb1/\xc1'
p609
tp610
Rp611
sg34
I1215
sg35
I705
sg36
g5
sg37
I650000
sg38
I987001
sg39
I74
sg40
I65
sg41
I379164
sg42
I269076
sg43
I1057548
sg44
I607837
ssS'SHERRIFF JOHN R'
p612
(dp613
g3
I3187
sg4
g5
sg6
g5
sg7
g8
(g12
S"\xa2\x9a\xc7\xf4\xe1\xf3'\xc1"
p614
tp615
Rp616
sg18
I00
sg19
g5
sg20
S'john.sherriff@enron.com'
p617
sg22
I554422
sg23
g5
sg24
g5
sg25
g8
(g12
S'y\xa1\xfa\xb6\xdd\xbcHA'
p618
tp619
Rp620
sg29
I2103
sg30
g8
(g12
S'\x13\xd0o\xa6\xd6U\x0cA'
p621
tp622
Rp623
sg34
I92
sg35
I1852186
sg36
g5
sg37
I1500000
sg38
I3128982
sg39
I28
sg40
I23
sg41
I1293424
sg42
I428780
sg43
I4335388
sg44
I1835558
ssS'SHELBY REX'
p624
(dp625
g3
I225
sg4
g5
sg6
I22884
sg7
g8
(g12
S'\x18\xc1\r^n-!\xc1'
p626
tp627
Rp628
sg18
I01
sg19
I-4167
sg20
S'rex.shelby@enron.com'
p629
sg22
g5
sg23
g5
sg24
g5
sg25
g8
(g12
S'\x10\x85\x027(\xf7!A'
p630
tp631
Rp632
sg29
I91
sg30
g8
(g12
S'\x0c\xe5\xab@O\x03\xd5\xc0'
p633
tp634
Rp635
sg34
I39
sg35
I1573324
sg36
g5
sg37
I200000
sg38
I2493616
sg39
I13
sg40
I14
sg41
I869220
sg42
I211844
sg43
I2003885
sg44
I1624396
ssS'LEMAISTRE CHARLES'
p636
(dp637
g3
g5
sg4
g5
sg6
g5
sg7
g8
(g12
S'\x9d\xcd\xf9\x14\xc1\xc3\xf0@'
p638
tp639
Rp640
sg18
I00
sg19
I-25000
sg20
g5
sg22
g5
sg23
g5
sg24
g5
sg25
g8
(g12
S'\xfc\x1bc\x10\x93o1\xc1'
p641
tp642
Rp643
sg29
g5
sg30
g8
(g12
S'\xf0\x83L\x02\x9a\x193\xc1'
p644
tp645
Rp646
sg34
g5
sg35
g5
sg36
I112492
sg37
g5
sg38
I412878
sg39
g5
sg40
g5
sg41
g5
sg42
g5
sg43
I87492
sg44
I412878
ssS'DEFFNER JOSEPH M'
p647
(dp648
g3
I714
sg4
g5
sg6
I41626
sg7
g8
(g12
S'W\xe4\x99\xce\x03x\xe7\xc0'
p649
tp650
Rp651
sg18
I00
sg19
g5
sg20
S'joseph.deffner@enron.com'
p652
sg22
I335349
sg23
g5
sg24
g5
sg25
g8
(g12
S'\xbc0\x08\xd7\xe5}\xff@'
p653
tp654
Rp655
sg29
I552
sg30
g8
(g12
S'\x01\x8e[\xfb\x11\xd68\xc1'
p656
tp657
Rp658
sg34
I74
sg35
I25553
sg36
g5
sg37
I600000
sg38
I159211
sg39
I115
sg40
I4
sg41
I141833
sg42
I206121
sg43
I1208649
sg44
I17378
ssS'KISHKILL JOSEPH G'
p659
(dp660
g3
g5
sg4
g5
sg6
I116335
sg7
g8
(g12
S'\xfc\x0b\x8c\n\xfek\xf9\xc0'
p661
tp662
Rp663
sg18
I00
sg19
I-51042
sg20
S'joe.kishkill@enron.com'
p664
sg22
g5
sg23
g5
sg24
g5
sg25
g8
(g12
S'46\xbc\xbf\xc0<"\xc1'
p665
tp666
Rp667
sg29
g5
sg30
g8
(g12
S'\r-f\x8d\xa6I9\xc1'
p668
tp669
Rp670
sg34
g5
sg35
I465357
sg36
g5
sg37
g5
sg38
I1034346
sg39
g5
sg40
g5
sg41
I1034346
sg42
I174246
sg43
I704896
sg44
g5
ssS'WHALLEY LAWRENCE G'
p671
(dp672
g3
I6019
sg4
g5
sg6
I57838
sg7
g8
(g12
S'to\x16a\x01M\x11\xc1'
p673
tp674
Rp675
sg18
I00
sg19
g5
sg20
S'greg.whalley@enron.com'
p676
sg22
I808346
sg23
g5
sg24
g5
sg25
g8
(g12
S'\xe1\x81\xf2@v4PA'
p677
tp678
Rp679
sg29
I3920
sg30
g8
(g12
S'"\x8d\x07+p\x06:A'
p680
tp681
Rp682
sg34
I556
sg35
I301026
sg36
g5
sg37
I3000000
sg38
I6079137
sg39
I186
sg40
I24
sg41
I2796177
sg42
I510364
sg43
I4677574
sg44
I3282960
ssS'MCCONNELL MICHAEL S'
p683
(dp684
g3
I3329
sg4
g5
sg6
I81364
sg7
g8
(g12
S'kEL\xf3\x7f\x90\x07\xc1'
p685
tp686
Rp687
sg18
I00
sg19
g5
sg20
S'mike.mcconnell@enron.com'
p688
sg22
I554422
sg23
g5
sg24
g5
sg25
g8
(g12
S'R\x13\x93uu\x061A'
p689
tp690
Rp691
sg29
I2189
sg30
g8
(g12
S'\n\xbb$e\xba\x0e\xbd\xc0'
p692
tp693
Rp694
sg34
I2742
sg35
I540
sg36
g5
sg37
I1100000
sg38
I3101279
sg39
I92
sg40
I194
sg41
I1478269
sg42
I365038
sg43
I2101364
sg44
I1623010
ssS'DELAINEY DAVID W'
p695
(dp696
g3
I3093
sg4
g5
sg6
I86174
sg7
g8
(g12
S"'\xe01\xec\xfaK\x10\xc1"
p697
tp698
Rp699
sg18
I01
sg19
g5
sg20
S'david.delainey@enron.com'
p700
sg22
I1294981
sg23
g5
sg24
g5
sg25
g8
(g12
S'\xd1\x80_9f\x83PA'
p701
tp702
Rp703
sg29
I2097
sg30
g8
(g12
S'\xec\xbd\xe4;3\xd6%A'
p704
tp705
Rp706
sg34
I3069
sg35
I1661
sg36
g5
sg37
I3000000
sg38
I3614261
sg39
I66
sg40
I609
sg41
I1323148
sg42
I365163
sg43
I4747979
sg44
I2291113
ssS'SULLIVAN-SHAKLOVITZ COLLEEN'
p707
(dp708
g3
g5
sg4
I181993
sg6
g5
sg7
g8
(g12
S'R\xb9\x0e\xf7\xd0h\x0f\xc1'
p709
tp710
Rp711
sg18
I00
sg19
g5
sg20
g5
sg22
I554422
sg23
g5
sg24
g5
sg25
g8
(g12
S'\xa5\xb7\xd9\xc4\x8a\xda\x13\xc1'
p712
tp713
Rp714
sg29
g5
sg30
g8
(g12
S'\xce\x9ea\x18\x7f\xf7\x11\xc1'
p715
tp716
Rp717
sg34
g5
sg35
I162
sg36
g5
sg37
I100000
sg38
I1362375
sg39
g5
sg40
g5
sg41
g5
sg42
I162779
sg43
I999356
sg44
I1362375
ssS'WROBEL BRUCE'
p718
(dp719
g3
g5
sg4
g5
sg6
g5
sg7
g8
(g12
S'\x89\xb4_ j\xc6\xf5@'
p720
tp721
Rp722
sg18
I00
sg19
g5
sg20
g5
sg22
g5
sg23
g5
sg24
g5
sg25
g8
(g12
S'm^\xd5\xdf\xa6\x8a2\xc1'
p723
tp724
Rp725
sg29
g5
sg30
g8
(g12
S'p\x04[\x061M7\xc1'
p726
tp727
Rp728
sg34
g5
sg35
g5
sg36
g5
sg37
g5
sg38
I139130
sg39
g5
sg40
g5
sg41
g5
sg42
g5
sg43
g5
sg44
I139130
ssS'LINDHOLM TOD A'
p729
(dp730
g3
g5
sg4
I204075
sg6
I57727
sg7
g8
(g12
S'\xe1\xfdk\xfay\xa9\n\xc1'
p731
tp732
Rp733
sg18
I00
sg19
g5
sg20
S'tod.lindholm@enron.com'
p734
sg22
I175000
sg23
g5
sg24
g5
sg25
g8
(g12
S'\xaaQ:\xe6E\xd3\x18\xc1'
p735
tp736
Rp737
sg29
g5
sg30
g8
(g12
S'\xebP\xe4\x98\xa16+A'
p738
tp739
Rp740
sg34
g5
sg35
I2630
sg36
g5
sg37
I200000
sg38
I3064208
sg39
g5
sg40
g5
sg41
I514847
sg42
I236457
sg43
I875889
sg44
I2549361
ssS'MEYER JEROME J'
p741
(dp742
g3
g5
sg4
g5
sg6
I2151
sg7
g8
(g12
S'\xcd\xee\x87\xa08\xb0\xfe@'
p743
tp744
Rp745
sg18
I00
sg19
I-38346
sg20
g5
sg22
g5
sg23
g5
sg24
g5
sg25
g8
(g12
S'\xfe\xf0\x8a\xd4:k2\xc1'
p746
tp747
Rp748
sg29
g5
sg30
g8
(g12
S'\x05\xe6c\xd2Le9\xc1'
p749
tp750
Rp751
sg34
g5
sg35
g5
sg36
I38346
sg37
g5
sg38
g5
sg39
g5
sg40
g5
sg41
g5
sg42
g5
sg43
I2151
sg44
g5
ssS'BUTTS ROBERT H'
p752
(dp753
g3
g5
sg4
g5
sg6
I9410
sg7
g8
(g12
S'\xbb\xe8\xe7\x0ew\x98\xed@'
p754
tp755
Rp756
sg18
I00
sg19
I-75000
sg20
S'bob.butts@enron.com'
p757
sg22
I175000
sg23
g5
sg24
g5
sg25
g8
(g12
S'\xba\x90\xb7F\x9a!\x10A'
p758
tp759
Rp760
sg29
g5
sg30
g8
(g12
S'\xaaG+\xe4\xf9\x009\xc1'
p761
tp762
Rp763
sg34
g5
sg35
I150656
sg36
g5
sg37
I750000
sg38
I417619
sg39
g5
sg40
g5
sg41
I417619
sg42
I261516
sg43
I1271582
sg44
g5
ssS'OLSON CINDY K'
p764
(dp765
g3
I1184
sg4
I77716
sg6
I63791
sg7
g8
(g12
S'\xf0\xc8\xfb|\xc2\xc5\xf4\xc0'
p766
tp767
Rp768
sg18
I00
sg19
g5
sg20
S'cindy.olson@enron.com'
p769
sg22
I100000
sg23
g5
sg24
g5
sg25
g8
(g12
S'\xef\xf6\xd9P0]\x10A'
p770
tp771
Rp772
sg29
I856
sg30
g8
(g12
S'\xe2\xf6\xa4\xeai\xf9\xb8\xc0'
p773
tp774
Rp775
sg34
I52
sg35
I972
sg36
g5
sg37
I750000
sg38
I2606763
sg39
I20
sg40
I15
sg41
I969729
sg42
I329078
sg43
I1321557
sg44
I1637034
ssS'MCDONALD REBECCA'
p776
(dp777
g3
I894
sg4
g5
sg6
g5
sg7
g8
(g12
S'!0\xabQ\xe87\xef@'
p778
tp779
Rp780
sg18
I00
sg19
g5
sg20
S'rebecca.mcdonald@enron.com'
p781
sg22
g5
sg23
g5
sg24
g5
sg25
g8
(g12
S'\xad\xd0R\x01\x0e\xbb2\xc1'
p782
tp783
Rp784
sg29
I720
sg30
g8
(g12
S'r5\x85\xcd\x8c\xc2+\xc1'
p785
tp786
Rp787
sg34
I13
sg35
g5
sg36
g5
sg37
g5
sg38
I1691366
sg39
I54
sg40
I1
sg41
I934065
sg42
g5
sg43
g5
sg44
I757301
ssS'CUMBERLAND MICHAEL S'
p788
(dp789
g3
g5
sg4
g5
sg6
I22344
sg7
g8
(g12
S'^w\xe3\x14b\xe1\xe0\xc0'
p790
tp791
Rp792
sg18
I00
sg19
g5
sg20
g5
sg22
I275000
sg23
g5
sg24
g5
sg25
g8
(g12
S'\xc1\x1a\x90^L\x8a\x15\xc1'
p793
tp794
Rp795
sg29
g5
sg30
g8
(g12
S'\xcc\x91l1\xfb99\xc1'
p796
tp797
Rp798
sg34
g5
sg35
I713
sg36
g5
sg37
I325000
sg38
I207940
sg39
g5
sg40
g5
sg41
I207940
sg42
I184899
sg43
I807956
sg44
g5
ssS'GAHN ROBERT S'
p799
(dp800
g3
g5
sg4
I73122
sg6
I50080
sg7
g8
(g12
S'\xd1\x03\x80\xff\xb6\xc0\xcc@'
p801
tp802
Rp803
sg18
I00
sg19
I-1042
sg20
g5
sg22
g5
sg23
g5
sg24
g5
sg25
g8
(g12
S'\x16\x11]k\x17`\x06\xc1'
p804
tp805
Rp806
sg29
g5
sg30
g8
(g12
S'\x8fi\xc5\x94\xd9\xe57\xc1'
p807
tp808
Rp809
sg34
g5
sg35
I76547
sg36
g5
sg37
I509870
sg38
I318607
sg39
g5
sg40
g5
sg41
I235370
sg42
I192008
sg43
I900585
sg44
I83237
ssS'MCCLELLAN GEORGE'
p810
(dp811
g3
I1744
sg4
g5
sg6
I228763
sg7
g8
(g12
S'\xcb\xdcbh\\2\x00A'
p812
tp813
Rp814
sg18
I00
sg19
I-125000
sg20
S'george.mcclellan@enron.com'
p815
sg22
g5
sg23
g5
sg24
g5
sg25
g8
(g12
S'\xfa\x1e\xa3S\xee\xc7\x16A'
p816
tp817
Rp818
sg29
I1469
sg30
g8
(g12
S'\xb3\x93Z\xa3\xbe31\xc1'
p819
tp820
Rp821
sg34
I49
sg35
I51587
sg36
g5
sg37
I900000
sg38
I947861
sg39
I52
sg40
I0
sg41
I441096
sg42
I263413
sg43
I1318763
sg44
I506765
ssS'HERMANN ROBERT J'
p822
(dp823
g3
g5
sg4
g5
sg6
I48357
sg7
g8
(g12
S'\xc5>q\xea\x049\x07A'
p824
tp825
Rp826
sg18
I00
sg19
I-280000
sg20
S'robert.hermann@enron.com'
p827
sg22
I150000
sg23
g5
sg24
g5
sg25
g8
(g12
S'\xd2\xe2\xbf\xa0\xcb\xdf\x10A'
p828
tp829
Rp830
sg29
g5
sg30
g8
(g12
S'\xaa}zB\x15\x046\xc1'
p831
tp832
Rp833
sg34
g5
sg35
I416441
sg36
g5
sg37
I700000
sg38
I668132
sg39
g5
sg40
g5
sg41
I480632
sg42
I262663
sg43
I1297461
sg44
I187500
ssS'SCRIMSHAW MATTHEW'
p834
(dp835
g3
g5
sg4
g5
sg6
g5
sg7
g8
(g12
S'{0M\xeab,\xef@'
p836
tp837
Rp838
sg18
I00
sg19
g5
sg20
S'matthew.scrimshaw@enron.com'
p839
sg22
g5
sg23
g5
sg24
g5
sg25
g8
(g12
S'\xd7\xc9\xee9;\xbb2\xc1'
p840
tp841
Rp842
sg29
g5
sg30
g8
(g12
S'\xfc\x12\x91\x0f\xf2\xb0+\xc1'
p843
tp844
Rp845
sg34
g5
sg35
g5
sg36
g5
sg37
g5
sg38
I759557
sg39
g5
sg40
g5
sg41
g5
sg42
g5
sg43
g5
sg44
I759557
ssS'GATHMANN WILLIAM D'
p846
(dp847
g3
g5
sg4
g5
sg6
g5
sg7
g8
(g12
S'\xf7\x91\xb9\x02,\xae\xd6@'
p848
tp849
Rp850
sg18
I00
sg19
g5
sg20
g5
sg22
g5
sg23
g5
sg24
I-72419
sg25
g8
(g12
S'x\x1dL\xf9\x13\t3\xc1'
p851
tp852
Rp853
sg29
g5
sg30
g8
(g12
S'\n\x00%\x1f\x16\xea\xf4@'
p854
tp855
Rp856
sg34
g5
sg35
g5
sg36
g5
sg37
g5
sg38
I1945360
sg39
g5
sg40
g5
sg41
I264013
sg42
g5
sg43
g5
sg44
I1753766
ssS'HAEDICKE MARK E'
p857
(dp858
g3
I4009
sg4
I2157527
sg6
I76169
sg7
g8
(g12
S'\xc3\xa9L\xe6\xfb\x19\xe3@'
p859
tp860
Rp861
sg18
I00
sg19
I-934484
sg20
S'mark.haedicke@enron.com'
p862
sg22
I983346
sg23
g5
sg24
I-329825
sg25
g8
(g12
S'\xea\xe44*\x82\x18EA'
p863
tp864
Rp865
sg29
I1847
sg30
g8
(g12
S'\x94@F\xd7\xa6Z-\xc1'
p866
tp867
Rp868
sg34
I1941
sg35
I52382
sg36
g5
sg37
I1150000
sg38
I803094
sg39
I180
sg40
I61
sg41
I524169
sg42
I374125
sg43
I3859065
sg44
I608750
ssS'BOWEN JR RAYMOND M'
p869
(dp870
g3
I1858
sg4
g5
sg6
I65907
sg7
g8
(g12
S'\xe1\xb3S4YQ\t\xc1'
p871
tp872
Rp873
sg18
I01
sg19
I-833
sg20
S'raymond.bowen@enron.com'
p874
sg22
I974293
sg23
g5
sg24
g5
sg25
g8
(g12
S'5\xf5H.\x1a\xe8:A'
p875
tp876
Rp877
sg29
I1593
sg30
g8
(g12
S';\x8c\xcd\x89\xd5\xb48\xc1'
p878
tp879
Rp880
sg34
I27
sg35
I1621
sg36
g5
sg37
I1350000
sg38
I252055
sg39
I140
sg40
I15
sg41
I252055
sg42
I278601
sg43
I2669589
sg44
g5
ssS'GILLIS JOHN'
p881
(dp882
g3
g5
sg4
g5
sg6
g5
sg7
g8
(g12
S'\x16\\\xc0\x96\xa4\x10\xf7@'
p883
tp884
Rp885
sg18
I00
sg19
g5
sg20
g5
sg22
g5
sg23
g5
sg24
g5
sg25
g8
(g12
S'Ajx\x89\x86\x802\xc1'
p886
tp887
Rp888
sg29
g5
sg30
g8
(g12
S'e\xdb\xc3P\xc9E9\xc1'
p889
tp890
Rp891
sg34
g5
sg35
g5
sg36
g5
sg37
g5
sg38
I85641
sg39
g5
sg40
g5
sg41
I75838
sg42
g5
sg43
g5
sg44
I9803
ssS'FITZGERALD JAY L'
p892
(dp893
g3
I936
sg4
g5
sg6
I23870
sg7
g8
(g12
S'\x85\x9b\x1e\\\\|\x0f\xc1'
p894
tp895
Rp896
sg18
I00
sg19
g5
sg20
S'jay.fitzgerald@enron.com'
p897
sg22
I556416
sg23
g5
sg24
g5
sg25
g8
(g12
S'^\xc2\x87\xfe\x8e\xee\x04A'
p898
tp899
Rp900
sg29
I723
sg30
g8
(g12
S'\x1a4q\xa1\xc2\x03.\xc1'
p901
tp902
Rp903
sg34
I16
sg35
I285414
sg36
g5
sg37
I350000
sg38
I1621236
sg39
I1
sg40
I8
sg41
I956775
sg42
I199157
sg43
I1414857
sg44
I664461
ssS'REDMOND BRIAN L'
p904
(dp905
g3
I1671
sg4
g5
sg6
I14689
sg7
g8
(g12
S'\x1dj#*\xa5\x91\xf6@'
p906
tp907
Rp908
sg18
I00
sg19
g5
sg20
S'brian.redmond@enron.com'
p909
sg22
g5
sg23
g5
sg24
g5
sg25
g8
(g12
S'\xe8<\x8c|k\x842\xc1'
p910
tp911
Rp912
sg29
I1063
sg30
g8
(g12
S' \x01MF\xbb\x838\xc1'
p913
tp914
Rp915
sg34
I221
sg35
g5
sg36
g5
sg37
g5
sg38
I7890324
sg39
I204
sg40
I49
sg41
I381285
sg42
I96840
sg43
I111529
sg44
I7509039
ssS'BAZELIDES PHILIP J'
p916
(dp917
g3
g5
sg4
I684694
sg6
g5
sg7
g8
(g12
S'Y&\xd32\xc0\x85\x0e\xc1'
p918
tp919
Rp920
sg18
I00
sg19
g5
sg20
g5
sg22
I93750
sg23
g5
sg24
g5
sg25
g8
(g12
S'\xc9\xae\xe4c\x8fR3\xc1'
p921
tp922
Rp923
sg29
g5
sg30
g8
(g12
S'\xbby\xa6W\x80BVA'
p924
tp925
Rp926
sg34
g5
sg35
I874
sg36
g5
sg37
g5
sg38
I1599641
sg39
g5
sg40
g5
sg41
g5
sg42
I80818
sg43
I860136
sg44
I1599641
ssS'BELDEN TIMOTHY N'
p927
(dp928
g3
I7991
sg4
I2144013
sg6
I17355
sg7
g8
(g12
S'\x9b=i9\xe4%\x10\xc1'
p929
tp930
Rp931
sg18
I01
sg19
I-2334434
sg20
S'tim.belden@enron.com'
p932
sg22
g5
sg23
g5
sg24
g5
sg25
g8
(g12
S'\xa1\x03\xb9\xba0\x81\x1e\xc1'
p933
tp934
Rp935
sg29
I5521
sg30
g8
(g12
S'\xa2\xc7\x000ar\xed\xc0'
p936
tp937
Rp938
sg34
I484
sg35
I210698
sg36
g5
sg37
I5249999
sg38
I1110705
sg39
I228
sg40
I108
sg41
I157569
sg42
I213999
sg43
I5501630
sg44
I953136
ssS'DURAN WILLIAM D'
p939
(dp940
g3
I904
sg4
g5
sg6
I25785
sg7
g8
(g12
S"M':\r\xfa\xd5\x14\xc1"
p941
tp942
Rp943
sg18
I00
sg19
g5
sg20
S'w.duran@enron.com'
p944
sg22
I1105218
sg23
g5
sg24
g5
sg25
g8
(g12
S'C;\x81;\xee\xae,A'
p945
tp946
Rp947
sg29
I599
sg30
g8
(g12
S'\xc7\x07\xf0\xdb\xea{\x06\xc1'
p948
tp949
Rp950
sg34
I12
sg35
I1568
sg36
g5
sg37
I750000
sg38
I1640910
sg39
I106
sg40
I3
sg41
I189041
sg42
I210692
sg43
I2093263
sg44
I1451869
ssS'THORN TERENCE H'
p951
(dp952
g3
I266
sg4
I16586
sg6
I46145
sg7
g8
(g12
S'\xfdi\xf8\xfa-U\x18\xc1'
p953
tp954
Rp955
sg18
I00
sg19
g5
sg20
S'terence.thorn@enron.com'
p956
sg22
I200000
sg23
g5
sg24
g5
sg25
g8
(g12
S'`\xee\xac\x04\x8cH\x1f\xc1'
p957
tp958
Rp959
sg29
I73
sg30
g8
(g12
S'\x1c\xb6\xf9\x90\x97HEA'
p960
tp961
Rp962
sg34
I41
sg35
I426629
sg36
g5
sg37
g5
sg38
I4817796
sg39
I0
sg40
I0
sg41
I365320
sg42
I222093
sg43
I911453
sg44
I4452476
ssS'FASTOW ANDREW S'
p963
(dp964
g3
g5
sg4
g5
sg6
I55921
sg7
g8
(g12
S'Q\xc3\xf3\xd8\xf5U.A'
p965
tp966
Rp967
sg18
I01
sg19
I-1386055
sg20
S'andrew.fastow@enron.com'
p968
sg22
I1736055
sg23
g5
sg24
g5
sg25
g8
(g12
S'\xf2\xbc%\xf3\x87(9A'
p969
tp970
Rp971
sg29
g5
sg30
g8
(g12
S'++\x95\xd8s\xd07\xc1'
p972
tp973
Rp974
sg34
g5
sg35
I277464
sg36
g5
sg37
I1300000
sg38
I1794412
sg39
g5
sg40
g5
sg41
I1794412
sg42
I440698
sg43
I2424083
sg44
g5
ssS'FOY JOE'
p975
(dp976
g3
I57
sg4
I181755
sg6
g5
sg7
g8
(g12
S'|\xc0\xae\x15\xe9B\xd2@'
p977
tp978
Rp979
sg18
I00
sg19
g5
sg20
S'tracy.foy@enron.com'
p980
sg22
g5
sg23
g5
sg24
g5
sg25
g8
(g12
S'\xc0i0\x8f\x0240\xc1'
p981
tp982
Rp983
sg29
I2
sg30
g8
(g12
S'\xae+|Wz)4\xc1'
p984
tp985
Rp986
sg34
I13
sg35
g5
sg36
g5
sg37
g5
sg38
I343434
sg39
I0
sg40
I0
sg41
g5
sg42
g5
sg43
I181755
sg44
I343434
ssS'CALGER CHRISTOPHER F'
p987
(dp988
g3
I2598
sg4
g5
sg6
I35818
sg7
g8
(g12
S'\x0f\x96\xe2t\xc4:\x13A'
p989
tp990
Rp991
sg18
I01
sg19
I-262500
sg20
S'christopher.calger@enron.com'
p992
sg22
I375304
sg23
g5
sg24
g5
sg25
g8
(g12
S'>\x96\x0c\x93D\xcc)A'
p993
tp994
Rp995
sg29
I2188
sg30
g8
(g12
S'+\xc8\x82Q\x1d\xb38\xc1'
p996
tp997
Rp998
sg34
I144
sg35
I486
sg36
g5
sg37
I1250000
sg38
I126027
sg39
I199
sg40
I25
sg41
I126027
sg42
I240189
sg43
I1639297
sg44
g5
ssS'RICE KENNETH D'
p999
(dp1000
g3
I905
sg4
g5
sg6
I46950
sg7
g8
(g12
S'\x91\x88\xf8T\xc0EEA'
p1001
tp1002
Rp1003
sg18
I01
sg19
I-3504386
sg20
S'ken.rice@enron.com'
p1004
sg22
I1617011
sg23
g5
sg24
g5
sg25
g8
(g12
S'k\x1f\xcc\n\xe96w\xc0'
p1005
tp1006
Rp1007
sg29
I864
sg30
g8
(g12
S'3_\\\xccWrqA'
p1008
tp1009
Rp1010
sg34
I18
sg35
I174839
sg36
g5
sg37
I1750000
sg38
I22542539
sg39
I42
sg40
I4
sg41
I2748364
sg42
I420636
sg43
I505050
sg44
I19794175
ssS'KAMINSKI WINCENTY J'
p1011
(dp1012
g3
I4607
sg4
g5
sg6
I83585
sg7
g8
(g12
S'\xbbR;\x18\xfa\xec\xff\xc0'
p1013
tp1014
Rp1015
sg18
I00
sg19
g5
sg20
S'vince.kaminski@enron.com'
p1016
sg22
I323466
sg23
g5
sg24
g5
sg25
g8
(g12
S'\x97IF\x88\x1b^\xf6\xc0'
p1017
tp1018
Rp1019
sg29
I583
sg30
g8
(g12
S'\x8c\x81\xa884m(\xc1'
p1020
tp1021
Rp1022
sg34
I14368
sg35
I4669
sg36
g5
sg37
I400000
sg38
I976037
sg39
I41
sg40
I171
sg41
I126027
sg42
I275101
sg43
I1086821
sg44
I850010
ssS'COX DAVID'
p1023
(dp1024
g3
I102
sg4
g5
sg6
I27861
sg7
g8
(g12
S'\x15\xb7\x9f\x14g\x90\xfa@'
p1025
tp1026
Rp1027
sg18
I00
sg19
I-41250
sg20
S'chip.cox@enron.com'
p1028
sg22
g5
sg23
g5
sg24
g5
sg25
g8
(g12
S'\xd98C\x9f-\xa1\x00A'
p1029
tp1030
Rp1031
sg29
I71
sg30
g8
(g12
S'\xff\x8e\xc2,&?7\xc1'
p1032
tp1033
Rp1034
sg34
I33
sg35
I494
sg36
g5
sg37
I800000
sg38
I495633
sg39
I0
sg40
I4
sg41
I378082
sg42
I314288
sg43
I1101393
sg44
I117551
ssS'OVERDYKE JR JERE C'
p1035
(dp1036
g3
g5
sg4
g5
sg6
I18834
sg7
g8
(g12
S'\x1by,\x82\x02\x1c\t\xc1'
p1037
tp1038
Rp1039
sg18
I00
sg19
g5
sg20
S'jere.overdyke@enron.com'
p1040
sg22
I135836
sg23
g5
sg24
g5
sg25
g8
(g12
S'\xc9\x900\xfcm\xcf0\xc1'
p1041
tp1042
Rp1043
sg29
g5
sg30
g8
(g12
S'^s\xbf\x94\xcdpKA'
p1044
tp1045
Rp1046
sg34
g5
sg35
I176
sg36
g5
sg37
g5
sg38
I7307594
sg39
g5
sg40
g5
sg41
I2041016
sg42
I94941
sg43
I249787
sg44
I5266578
ssS'STABLER FRANK'
p1047
(dp1048
g3
g5
sg4
g5
sg6
I16514
sg7
g8
(g12
S'u\r\x7fCm\x96\x04A'
p1049
tp1050
Rp1051
sg18
I00
sg19
g5
sg20
S'frank.stabler@enron.com'
p1052
sg22
g5
sg23
g5
sg24
g5
sg25
g8
(g12
S'\n\x03\x9a(E\xfe1\xc1'
p1053
tp1054
Rp1055
sg29
g5
sg30
g8
(g12
S'\x88P\x1a>rY9\xc1'
p1056
tp1057
Rp1058
sg34
g5
sg35
I356071
sg36
g5
sg37
I500000
sg38
I511734
sg39
g5
sg40
g5
sg41
I511734
sg42
I239502
sg43
I1112087
sg44
g5
ssS'SKILLING JEFFREY K'
p1059
(dp1060
g3
I3627
sg4
g5
sg6
I29336
sg7
g8
(g12
S'\xfc\x1dh\xf4\x9a\x0e\xed\xc0'
p1061
tp1062
Rp1063
sg18
I01
sg19
g5
sg20
S'jeff.skilling@enron.com'
p1064
sg22
I1920000
sg23
g5
sg24
g5
sg25
g8
(g12
S'\x91@N\x03\x8b2\xab\xc0'
p1065
tp1066
Rp1067
sg29
I2042
sg30
g8
(g12
S'\xc3\x08\x82\x15\xc5#9\xc1'
p1068
tp1069
Rp1070
sg34
I108
sg35
I22122
sg36
g5
sg37
I5600000
sg38
I26093672
sg39
I88
sg40
I30
sg41
I6843672
sg42
I1111258
sg43
I8682716
sg44
I19250000
ssS'BLAKE JR. NORMAN P'
p1071
(dp1072
g3
g5
sg4
g5
sg6
I1279
sg7
g8
(g12
S'7UE\x05\xb0\xf5\x06A'
p1073
tp1074
Rp1075
sg18
I00
sg19
I-113784
sg20
g5
sg22
g5
sg23
g5
sg24
g5
sg25
g8
(g12
S'\x14\x07w\x92\x1aT2\xc1'
p1076
tp1077
Rp1078
sg29
g5
sg30
g8
(g12
S'\x1cZ\xfd^<X9\xc1'
p1079
tp1080
Rp1081
sg34
g5
sg35
g5
sg36
I113784
sg37
g5
sg38
g5
sg39
g5
sg40
g5
sg41
g5
sg42
g5
sg43
I1279
sg44
g5
ssS'SHERRICK JEFFREY B'
p1082
(dp1083
g3
I613
sg4
g5
sg6
g5
sg7
g8
(g12
S'\x90E\xb1\xf4\x8c\xde\xe1@'
p1084
tp1085
Rp1086
sg18
I00
sg19
g5
sg20
S'jeffrey.sherrick@enron.com'
p1087
sg22
g5
sg23
g5
sg24
g5
sg25
g8
(g12
S'\x92\x8e\xae\\s\xef2\xc1'
p1088
tp1089
Rp1090
sg29
I583
sg30
g8
(g12
S'\xf6\xa2\x1d\xa7\x11s\r\xc1'
p1091
tp1092
Rp1093
sg34
I25
sg35
g5
sg36
g5
sg37
g5
sg38
I1832468
sg39
I39
sg40
I18
sg41
I405999
sg42
g5
sg43
g5
sg44
I1426469
ssS'PRENTICE JAMES'
p1094
(dp1095
g3
g5
sg4
I564348
sg6
g5
sg7
g8
(g12
S'0\x96\xa5\xa5\x8ad\x00\xc1'
p1096
tp1097
Rp1098
sg18
I00
sg19
g5
sg20
S'james.prentice@enron.com'
p1099
sg22
g5
sg23
g5
sg24
g5
sg25
g8
(g12
S'\xc8(\xaa\xabf\xa1&\xc1'
p1100
tp1101
Rp1102
sg29
g5
sg30
g8
(g12
S"\x8e\xec\xa1\xec\x96\xab'\xc1"
p1103
tp1104
Rp1105
sg34
g5
sg35
g5
sg36
g5
sg37
g5
sg38
I1095040
sg39
g5
sg40
g5
sg41
I208809
sg42
g5
sg43
I564348
sg44
I886231
ssS'GRAY RODNEY'
p1106
(dp1107
g3
g5
sg4
I93585
sg6
g5
sg7
g8
(g12
S's\xd4\x1e\xc4s#\x12\xc1'
p1108
tp1109
Rp1110
sg18
I00
sg19
g5
sg20
g5
sg22
I365625
sg23
g5
sg24
g5
sg25
g8
(g12
S'\xcb?s\x1a\xf0\xd0\n\xc1'
p1111
tp1112
Rp1113
sg29
g5
sg30
g8
(g12
S'\xa6`\xb4\x05\x84B9\xc1'
p1114
tp1115
Rp1116
sg34
g5
sg35
I680833
sg36
g5
sg37
g5
sg38
g5
sg39
g5
sg40
g5
sg41
g5
sg42
I6615
sg43
I1146658
sg44
g5
ssS'PICKERING MARK R'
p1117
(dp1118
g3
I898
sg4
g5
sg6
I31653
sg7
g8
(g12
S'~q\x06\xc9\xa0\xe5\r\xc1'
p1119
tp1120
Rp1121
sg18
I00
sg19
g5
sg20
S'mark.pickering@enron.com'
p1122
sg22
g5
sg23
I400000
sg24
g5
sg25
g8
(g12
S'{\xc0W\xa4\x94\x81\x00A'
p1123
tp1124
Rp1125
sg29
I728
sg30
g8
(g12
S'\xa7\x956\xc9C\xb68\xc1'
p1126
tp1127
Rp1128
sg34
I67
sg35
g5
sg36
g5
sg37
I300000
sg38
I28798
sg39
I7
sg40
I0
sg41
g5
sg42
I655037
sg43
I1386690
sg44
I28798
ssS'THE TRAVEL AGENCY IN THE PARK'
p1129
(dp1130
g3
g5
sg4
g5
sg6
g5
sg7
g8
(g12
S'\xcb\xec\xbca\x83@\xdc\xc0'
p1131
tp1132
Rp1133
sg18
I00
sg19
g5
sg20
g5
sg22
g5
sg23
g5
sg24
g5
sg25
g8
(g12
S'se\xa1\x18\x86n+\xc1'
p1134
tp1135
Rp1136
sg29
g5
sg30
g8
(g12
S'8+\x95w\xec^9\xc1'
p1137
tp1138
Rp1139
sg34
g5
sg35
I362096
sg36
g5
sg37
g5
sg38
g5
sg39
g5
sg40
g5
sg41
g5
sg42
g5
sg43
I362096
sg44
g5
ssS'NOLES JAMES L'
p1140
(dp1141
g3
g5
sg4
I774401
sg6
g5
sg7
g8
(g12
S'\x98\xcb\x17}o\xbd\x04\xc1'
p1142
tp1143
Rp1144
sg18
I00
sg19
g5
sg20
g5
sg22
g5
sg23
g5
sg24
I-94556
sg25
g8
(g12
S'1\xa3\xfd\x02\xf3\x89 \xc1'
p1145
tp1146
Rp1147
sg29
g5
sg30
g8
(g12
S'\xe3\x162\xa2\xfeO9\xc1'
p1148
tp1149
Rp1150
sg34
g5
sg35
g5
sg36
g5
sg37
g5
sg38
I368705
sg39
g5
sg40
g5
sg41
I463261
sg42
g5
sg43
I774401
sg44
g5
ssS'KEAN STEVEN J'
p1151
(dp1152
g3
I12754
sg4
g5
sg6
I41953
sg7
g8
(g12
S'\x99.\x81\xe3\xd2L\x00\xc1'
p1153
tp1154
Rp1155
sg18
I00
sg19
g5
sg20
S'steven.kean@enron.com'
p1156
sg22
I300000
sg23
g5
sg24
g5
sg25
g8
(g12
S'7\x19\xe6\xb5\xb0\xf4&A'
p1157
tp1158
Rp1159
sg29
I3639
sg30
g8
(g12
S'w\x91JC\xa0\x92\x17A'
p1160
tp1161
Rp1162
sg34
I6759
sg35
I1231
sg36
g5
sg37
I1000000
sg38
I6153642
sg39
I140
sg40
I387
sg41
I4131594
sg42
I404338
sg43
I1747522
sg44
I2022048
ssS'FOWLER PEGGY'
p1163
(dp1164
g3
I517
sg4
g5
sg6
g5
sg7
g8
(g12
S'\x05\xdf\x05(\xe5\xe6\xe3@'
p1165
tp1166
Rp1167
sg18
I00
sg19
g5
sg20
S'kulvinder.fowler@enron.com'
p1168
sg22
g5
sg23
g5
sg24
g5
sg25
g8
(g12
S'\xdb\xb7|\xf9x\xe72\xc1'
p1169
tp1170
Rp1171
sg29
I10
sg30
g8
(g12
S'a\xbd\xab\xe0\xb9\xef\x14\xc1'
p1172
tp1173
Rp1174
sg34
I36
sg35
g5
sg36
g5
sg37
g5
sg38
I1884748
sg39
I0
sg40
I0
sg41
I560170
sg42
g5
sg43
g5
sg44
I1324578
ssS'WASAFF GEORGE'
p1175
(dp1176
g3
I400
sg4
I831299
sg6
g5
sg7
g8
(g12
S'\x03^G\x03\xb2N\x12A'
p1177
tp1178
Rp1179
sg18
I00
sg19
I-583325
sg20
S'george.wasaff@enron.com'
p1180
sg22
I200000
sg23
g5
sg24
g5
sg25
g8
(g12
S'\xe4G\xb9j\xa2\xee\x00\xc1'
p1181
tp1182
Rp1183
sg29
I337
sg30
g8
(g12
S'\xe5\x085\xd4\xe5\x10\xe4@'
p1184
tp1185
Rp1186
sg34
I30
sg35
I1425
sg36
g5
sg37
I325000
sg38
I2056427
sg39
I22
sg40
I7
sg41
I388167
sg42
I259996
sg43
I1034395
sg44
I1668260
ssS'WHITE JR THOMAS E'
p1187
(dp1188
g3
g5
sg4
g5
sg6
I81353
sg7
g8
(g12
S'\x9f\xb9\xa2X\x95g\x19\xc1'
p1189
tp1190
Rp1191
sg18
I00
sg19
g5
sg20
S'thomas.white@enron.com'
p1192
sg22
g5
sg23
g5
sg24
g5
sg25
g8
(g12
S'\x9c\x0c\x92@\xbc\x12$A'
p1193
tp1194
Rp1195
sg29
g5
sg30
g8
(g12
S'~\xf7\xa1\xe6\x02\x12\x15\xc1'
p1196
tp1197
Rp1198
sg34
g5
sg35
I1085463
sg36
g5
sg37
I450000
sg38
I15144123
sg39
g5
sg40
g5
sg41
I13847074
sg42
I317543
sg43
I1934359
sg44
I1297049
ssS'CHRISTODOULOU DIOMEDES'
p1199
(dp1200
g3
g5
sg4
g5
sg6
g5
sg7
g8
(g12
S'\xec\xd0\x1f\xa21\xfa\xfb\xc0'
p1201
tp1202
Rp1203
sg18
I00
sg19
g5
sg20
S'diomedes.christodoulou@enron.com'
p1204
sg22
g5
sg23
g5
sg24
g5
sg25
g8
(g12
S'\xf6D\x1d\xf96\x114\xc1'
p1205
tp1206
Rp1207
sg29
g5
sg30
g8
(g12
S'\x969\\\xa0I\\JA'
p1208
tp1209
Rp1210
sg34
g5
sg35
g5
sg36
g5
sg37
g5
sg38
I6077885
sg39
g5
sg40
g5
sg41
I950730
sg42
g5
sg43
g5
sg44
I5127155
ssS'ALLEN PHILLIP K'
p1211
(dp1212
g3
I2902
sg4
I2869717
sg6
I13868
sg7
g8
(g12
S'\xca\x83\x1fu\xb58FA'
p1213
tp1214
Rp1215
sg18
I00
sg19
I-3081055
sg20
S'phillip.allen@enron.com'
p1216
sg22
I304805
sg23
g5
sg24
I-126027
sg25
g8
(g12
S'2=d>\xab\xeeRA'
p1217
tp1218
Rp1219
sg29
I1407
sg30
g8
(g12
S"'\xa4\x9a|\x1f\xd2\x12A"
p1220
tp1221
Rp1222
sg34
I2195
sg35
I152
sg36
g5
sg37
I4175000
sg38
I1729541
sg39
I47
sg40
I65
sg41
I126027
sg42
I201955
sg43
I4484442
sg44
I1729541
ssS'SHARP VICTORIA T'
p1223
(dp1224
g3
I3136
sg4
I187469
sg6
I116337
sg7
g8
(g12
S'\xcay\xbdq-\x89\x06\xc1'
p1225
tp1226
Rp1227
sg18
I00
sg19
g5
sg20
S'vicki.sharp@enron.com'
p1228
sg22
I422158
sg23
g5
sg24
g5
sg25
g8
(g12
S'\x0f\x7fIS\xdd\xfc\x1aA'
p1229
tp1230
Rp1231
sg29
I2477
sg30
g8
(g12
S'\xcc\xf3!g\xe4\xc34\xc1'
p1232
tp1233
Rp1234
sg34
I136
sg35
I2401
sg36
g5
sg37
I600000
sg38
I494136
sg39
I24
sg40
I6
sg41
I213063
sg42
I248146
sg43
I1576511
sg44
I281073
ssS'JAEDICKE ROBERT'
p1235
(dp1236
g3
g5
sg4
g5
sg6
g5
sg7
g8
(g12
S'\x1a3\xd9\xc4\x87\xe3\xf0@'
p1237
tp1238
Rp1239
sg18
I00
sg19
I-25000
sg20
g5
sg22
g5
sg23
g5
sg24
I-44093
sg25
g8
(g12
S'\xa7x\x80\xd8\xb4}1\xc1'
p1240
tp1241
Rp1242
sg29
g5
sg30
g8
(g12
S'\x9f\x03\xfa\xaf\x1a\xd02\xc1'
p1243
tp1244
Rp1245
sg34
g5
sg35
g5
sg36
I108750
sg37
g5
sg38
I431750
sg39
g5
sg40
g5
sg41
I44093
sg42
g5
sg43
I83750
sg44
I431750
ssS'WINOKUR JR. HERBERT S'
p1246
(dp1247
g3
g5
sg4
g5
sg6
I1413
sg7
g8
(g12
S'w\xea\xa3\x9ao\x17\xf5@'
p1248
tp1249
Rp1250
sg18
I00
sg19
I-25000
sg20
g5
sg22
g5
sg23
g5
sg24
g5
sg25
g8
(g12
S'w_\xdeF\xb3W1\xc1'
p1251
tp1252
Rp1253
sg29
g5
sg30
g8
(g12
S'\x87\x94\x8b\n\x9ed9\xc1'
p1254
tp1255
Rp1256
sg34
g5
sg35
g5
sg36
I108579
sg37
g5
sg38
g5
sg39
g5
sg40
g5
sg41
g5
sg42
g5
sg43
I84992
sg44
g5
ssS'BROWN MICHAEL'
p1257
(dp1258
g3
I1486
sg4
g5
sg6
I49288
sg7
g8
(g12
S'yh\x90Yj\x0c\xf3@'
p1259
tp1260
Rp1261
sg18
I00
sg19
g5
sg20
S'michael.brown@enron.com'
p1262
sg22
g5
sg23
g5
sg24
g5
sg25
g8
(g12
S'%IK\xce\x14\xd91\xc1'
p1263
tp1264
Rp1265
sg29
I761
sg30
g8
(g12
S'\xbf\xd6\x17\x05@j9\xc1'
p1266
tp1267
Rp1268
sg34
I41
sg35
g5
sg36
g5
sg37
g5
sg38
g5
sg39
I13
sg40
I1
sg41
g5
sg42
g5
sg43
I49288
sg44
g5
ssS'BADUM JAMES P'
p1269
(dp1270
g3
g5
sg4
I178980
sg6
I3486
sg7
g8
(g12
S'1\xd8\xaf0\x9bp\xd5@'
p1271
tp1272
Rp1273
sg18
I00
sg19
g5
sg20
g5
sg22
g5
sg23
g5
sg24
g5
sg25
g8
(g12
S'\xfaV \xdc\xe6*0\xc1'
p1274
tp1275
Rp1276
sg29
g5
sg30
g8
(g12
S'\xd9\x91\x88\xfa\x80w5\xc1'
p1277
tp1278
Rp1279
sg34
g5
sg35
g5
sg36
g5
sg37
g5
sg38
I257817
sg39
g5
sg40
g5
sg41
g5
sg42
g5
sg43
I182466
sg44
I257817
ssS'HUGHES JAMES A'
p1280
(dp1281
g3
I719
sg4
g5
sg6
g5
sg7
g8
(g12
S'\x07\xc3\x14\x01\xd5C\xef@'
p1282
tp1283
Rp1284
sg18
I00
sg19
g5
sg20
S'james.hughes@enron.com'
p1285
sg22
g5
sg23
g5
sg24
g5
sg25
g8
(g12
S'^\xe0S3\xdf\xba2\xc1'
p1286
tp1287
Rp1288
sg29
I589
sg30
g8
(g12
S'\x8a\xa8V\\\xc5\xd4+\xc1'
p1289
tp1290
Rp1291
sg34
I34
sg35
g5
sg36
g5
sg37
g5
sg38
I1118394
sg39
I35
sg40
I5
sg41
I363428
sg42
g5
sg43
g5
sg44
I754966
ssS'DIMICHELE RICHARD G'
p1292
(dp1293
g3
g5
sg4
g5
sg6
I35812
sg7
g8
(g12
S'\x96\x16\x99\xaa>\xe4i\xc0'
p1294
tp1295
Rp1296
sg18
I00
sg19
g5
sg20
S'richard.dimichele@enron.com'
p1297
sg22
I694862
sg23
g5
sg24
g5
sg25
g8
(g12
S'hl2\xefC\x14+\xc1'
p1298
tp1299
Rp1300
sg29
g5
sg30
g8
(g12
S'\xb6\xd2y\xc6\x86\x1aCA'
p1301
tp1302
Rp1303
sg34
g5
sg35
I374689
sg36
g5
sg37
I1000000
sg38
I8317782
sg39
g5
sg40
g5
sg41
I126027
sg42
I262788
sg43
I2368151
sg44
I8191755
ssS'BHATNAGAR SANJAY'
p1304
(dp1305
g3
I523
sg4
g5
sg6
g5
sg7
g8
(g12
S'\xcc\x9e\xe5\xfcC>"\xc1'
p1306
tp1307
Rp1308
sg18
I00
sg19
g5
sg20
S'sanjay.bhatnagar@enron.com'
p1309
sg22
g5
sg23
g5
sg24
I15456290
sg25
g8
(g12
S'\xb0:[\xda\x07\xca1A'
p1310
tp1311
Rp1312
sg29
I463
sg30
g8
(g12
S'\xc7\xf2\xa4\x8a\xdd\x00YA'
p1313
tp1314
Rp1315
sg34
I29
sg35
I137864
sg36
I137864
sg37
g5
sS'total_stock_value'
p1316
S'NaN'
p1317
sg39
I0
sg40
I1
sg41
I-2604490
sg42
g5
sg43
I15456290
sg44
I2604490
ssS'CARTER REBECCA C'
p1318
(dp1319
g3
I312
sg4
g5
sg6
g5
sg7
g8
(g12
S'<\xd1\xd6\x90\xd3>\x08A'
p1320
tp1321
Rp1322
sg18
I00
sg19
I-159792
sg20
S'rebecca.carter@enron.com'
p1323
sg22
I75000
sg23
g5
sg24
I-307301
sg25
g8
(g12
S':[\x8e6qq#\xc1'
p1324
tp1325
Rp1326
sg29
I196
sg30
g8
(g12
S'\xc3PE\x12\xce+9\xc1'
p1327
tp1328
Rp1329
sg34
I15
sg35
I540
sg36
g5
sg37
I300000
sg38
g5
sg39
I29
sg40
I7
sg41
I307301
sg42
I261809
sg43
I477557
sg44
g5
ssS'BUCHANAN HAROLD G'
p1330
(dp1331
g3
I1088
sg4
g5
sg6
I600
sg7
g8
(g12
S'\x88j\x84\x86e\xf7\xf1\xc0'
p1332
tp1333
Rp1334
sg18
I00
sg19
g5
sg20
S'john.buchanan@enron.com'
p1335
sg22
I304805
sg23
g5
sg24
g5
sg25
g8
(g12
S'\x12\x99x\xb1+\x08\xf1\xc0'
p1336
tp1337
Rp1338
sg29
I23
sg30
g8
(g12
S'HH]\x1cG")\xc1'
p1339
tp1340
Rp1341
sg34
I125
sg35
I1215
sg36
g5
sg37
I500000
sg38
I1014505
sg39
I0
sg40
I0
sg41
I189041
sg42
I248017
sg43
I1054637
sg44
I825464
ssS'YEAP SOON'
p1342
(dp1343
g3
g5
sg4
g5
sg6
I55097
sg7
g8
(g12
S'\x9a\x00%\xae\x15\xa4\xf0@'
p1344
tp1345
Rp1346
sg18
I00
sg19
g5
sg20
g5
sg22
g5
sg23
g5
sg24
g5
sg25
g8
(g12
S'\x11,\xf4\xae\x87\xd41\xc1'
p1347
tp1348
Rp1349
sg29
g5
sg30
g8
(g12
S'Cp.\xcd\xf4y6\xc1'
p1350
tp1351
Rp1352
sg34
g5
sg35
g5
sg36
g5
sg37
g5
sg38
I192758
sg39
g5
sg40
g5
sg41
g5
sg42
g5
sg43
I55097
sg44
I192758
ssS'MURRAY JULIA H'
p1353
(dp1354
g3
I2192
sg4
g5
sg6
I57580
sg7
g8
(g12
S'\xce\xef8G\xf5\x11\xd2\xc0'
p1355
tp1356
Rp1357
sg18
I00
sg19
g5
sg20
S'julia.murray@enron.com'
p1358
sg22
I125000
sg23
g5
sg24
g5
sg25
g8
(g12
S'\xa4\x12\x1a\xb1\x8b\x8d\x13\xc1'
p1359
tp1360
Rp1361
sg29
I395
sg30
g8
(g12
S'\x0c\x9eB\xe4{\x1a3\xc1'
p1362
tp1363
Rp1364
sg34
I45
sg35
I330
sg36
g5
sg37
I400000
sg38
I597461
sg39
I11
sg40
I2
sg41
I196983
sg42
I229284
sg43
I812194
sg44
I400478
ssS'GARLAND C KEVIN'
p1365
(dp1366
g3
I209
sg4
g5
sg6
I48405
sg7
g8
(g12
S'\x11\xf8\x8d\xbe\xcd4\xf4\xc0'
p1367
tp1368
Rp1369
sg18
I00
sg19
g5
sg20
S'kevin.garland@enron.com'
p1370
sg22
I375304
sg23
g5
sg24
g5
sg25
g8
(g12
S'\x04\x82o7R\xc4 A'
p1371
tp1372
Rp1373
sg29
I178
sg30
g8
(g12
S'\xf7\xda__\xf5\x94.\xc1'
p1374
tp1375
Rp1376
sg34
I44
sg35
I60814
sg36
g5
sg37
I850000
sg38
I896153
sg39
I10
sg40
I27
sg41
I259907
sg42
I231946
sg43
I1566469
sg44
I636246
ssS'DODSON KEITH'
p1377
(dp1378
g3
I176
sg4
g5
sg6
I28164
sg7
g8
(g12
S'\xeb\x84\x0e\xab\x9f\xb3\xd0@'
p1379
tp1380
Rp1381
sg18
I00
sg19
g5
sg20
S'keith.dodson@enron.com'
p1382
sg22
g5
sg23
g5
sg24
g5
sg25
g8
(g12
S'\xab\xb01:o~+\xc1'
p1383
tp1384
Rp1385
sg29
I114
sg30
g8
(g12
S'\x9dq\xdal\xf8[9\xc1'
p1386
tp1387
Rp1388
sg34
I14
sg35
I774
sg36
g5
sg37
I70000
sg38
g5
sg39
I10
sg40
I3
sg41
g5
sg42
I221003
sg43
I319941
sg44
g5
ssS'YEAGER F SCOTT'
p1389
(dp1390
g3
g5
sg4
g5
sg6
I53947
sg7
g8
(g12
S' \xb7`OGr\x16\xc1'
p1391
tp1392
Rp1393
sg18
I01
sg19
g5
sg20
S'scott.yeager@enron.com'
p1394
sg22
g5
sg23
g5
sg24
g5
sg25
g8
(g12
S'\x96\xf9\x1d[\xe5G0\xc1'
p1395
tp1396
Rp1397
sg29
g5
sg30
g8
(g12
S'\xe7q\xa0(\x9ePYA'
p1398
tp1399
Rp1400
sg34
g5
sg35
I147950
sg36
g5
sg37
g5
sg38
I11884758
sg39
g5
sg40
g5
sg41
I3576206
sg42
I158403
sg43
I360300
sg44
I8308552
ssS'HIRKO JOSEPH'
p1401
(dp1402
g3
g5
sg4
I10259
sg6
I77978
sg7
g8
(g12
S'x\x91\x05Z\x0252\xc1'
p1403
tp1404
Rp1405
sg18
I01
sg19
g5
sg20
S'joe.hirko@enron.com'
p1406
sg22
g5
sg23
g5
sg24
g5
sg25
g8
(g12
S'\xf6\xc25"\xb2\xb4:\xc1'
p1407
tp1408
Rp1409
sg29
g5
sg30
g8
(g12
S'\x03`Bk\xf2\xb7{A'
p1410
tp1411
Rp1412
sg34
g5
sg35
I2856
sg36
g5
sg37
g5
sg38
I30766064
sg39
g5
sg40
g5
sg41
g5
sg42
g5
sg43
I91093
sg44
I30766064
ssS'DERRICK JR. JAMES V'
p1413
(dp1414
g3
I2181
sg4
g5
sg6
I51124
sg7
g8
(g12
S'\xe8\nRx\x18\xef\x05\xc1'
p1415
tp1416
Rp1417
sg18
I00
sg19
I-1284000
sg20
S'james.derrick@enron.com'
p1418
sg22
I484000
sg23
g5
sg24
I-1787380
sg25
g8
(g12
S'\x8b\xd4\xdaVZ\xa9\x10A'
p1419
tp1420
Rp1421
sg29
I1401
sg30
g8
(g12
S'"O\x90\xfe\xc4-\xf7\xc0'
p1422
tp1423
Rp1424
sg34
I909
sg35
I7482
sg36
g5
sg37
I800000
sg38
I8831913
sg39
I64
sg40
I20
sg41
I1787380
sg42
I492375
sg43
I550981
sg44
I8831913
ssS'FREVERT MARK A'
p1425
(dp1426
g3
I3275
sg4
I6426990
sg6
I86987
sg7
g8
(g12
S'\xa5\x1f\x12)\xb7i-A'
p1427
tp1428
Rp1429
sg18
I00
sg19
I-3367011
sg20
S'mark.frevert@enron.com'
p1430
sg22
I1617011
sg23
I2000000
sg24
g5
sg25
g8
(g12
S'\x884\xc7\xdc\xd5\xb7\x18\xc1'
p1431
tp1432
Rp1433
sg29
I2979
sg30
g8
(g12
S'\xee\xd8\x08\xe7]\x95[A'
p1434
tp1435
Rp1436
sg34
I21
sg35
I7427621
sg36
g5
sg37
I2000000
sg38
I14622185
sg39
I242
sg40
I6
sg41
I4188667
sg42
I1060932
sg43
I17252530
sg44
I10433518
ssS'PAI LOU L'
p1437
(dp1438
g3
g5
sg4
g5
sg6
I32047
sg7
g8
(g12
S'\xca\xda\xdcwu\x881\xc1'
p1439
tp1440
Rp1441
sg18
I00
sg19
g5
sg20
S'lou.pai@enron.com'
p1442
sg22
g5
sg23
g5
sg24
g5
sg25
g8
(g12
S'R\xf8\x1a\xc9c\x929A'
p1443
tp1444
Rp1445
sg29
g5
sg30
g8
(g12
S':\x83 \x8f\xec-jA'
p1446
tp1447
Rp1448
sg34
g5
sg35
I1829457
sg36
g5
sg37
I1000000
sg38
I23817930
sg39
g5
sg40
g5
sg41
I8453763
sg42
I261879
sg43
I3123383
sg44
I15364167
ssS'BAY FRANKLIN R'
p1449
(dp1450
g3
g5
sg4
I260455
sg6
I129142
sg7
g8
(g12
S'r\x1c\x93)\x9cY\x03A'
p1451
tp1452
Rp1453
sg18
I00
sg19
I-201641
sg20
S'frank.bay@enron.com'
p1454
sg22
g5
sg23
g5
sg24
I-82782
sg25
g8
(g12
S"\xcb\xe5\x97o\xa3'\x11\xc1"
p1455
tp1456
Rp1457
sg29
g5
sg30
g8
(g12
S'W\xda*ev\x119\xc1'
p1458
tp1459
Rp1460
sg34
g5
sg35
I69
sg36
g5
sg37
I400000
sg38
I63014
sg39
g5
sg40
g5
sg41
I145796
sg42
I239671
sg43
I827696
sg44
g5
ssS'FALLON JAMES B'
p1461
(dp1462
g3
I1755
sg4
g5
sg6
I95924
sg7
g8
(g12
S'\tInk3.\xf1@'
p1463
tp1464
Rp1465
sg18
I00
sg19
g5
sg20
S'jim.fallon@enron.com'
p1466
sg22
I374347
sg23
g5
sg24
g5
sg25
g8
(g12
S'#\x8a\xc6?|\xe21\xc1'
p1467
tp1468
Rp1469
sg29
I1604
sg30
g8
(g12
S'\xb5g:{\x07\xba6\xc1'
p1470
tp1471
Rp1472
sg34
I75
sg35
I401481
sg36
g5
sg37
I2500000
sg38
I2332399
sg39
I42
sg40
I37
sg41
I1392142
sg42
I304588
sg43
I3676340
sg44
I940257
ssS'KOENIG MARK E'
p1473
(dp1474
g3
I2374
sg4
g5
sg6
I127017
sg7
g8
(g12
S'\xac\xaf\x95q\xf8e\xf1\xc0'
p1475
tp1476
Rp1477
sg18
I01
sg19
g5
sg20
S'mark.koenig@enron.com'
p1478
sg22
I300000
sg23
g5
sg24
g5
sg25
g8
(g12
S'\xd6\xce\xe0\x11\xffFHA'
p1479
tp1480
Rp1481
sg29
I2271
sg30
g8
(g12
S'v\xec\xdf\x1e\xaa\xe4#\xc1'
p1482
tp1483
Rp1484
sg34
I61
sg35
I150458
sg36
g5
sg37
I700000
sg38
I1920055
sg39
I53
sg40
I15
sg41
I1248318
sg42
I309946
sg43
I1587421
sg44
I671737
ssS'SAVAGE FRANK'
p1485
(dp1486
g3
g5
sg4
g5
sg6
g5
sg7
g8
(g12
S'\x19W\xa0\x1a\xf1l\x03\xc1'
p1487
tp1488
Rp1489
sg18
I00
sg19
I-121284
sg20
g5
sg22
g5
sg23
g5
sg24
g5
sg25
g8
(g12
S'J\xefH\x12:\x17\x1eA'
p1490
tp1491
Rp1492
sg29
g5
sg30
g8
(g12
S'LG\xca\x7f\xb0\x91-\xc1'
p1493
tp1494
Rp1495
sg34
g5
sg35
g5
sg36
I125034
sg37
g5
sg38
g5
sg39
g5
sg40
g5
sg41
g5
sg42
g5
sg43
I3750
sg44
g5
ssS'IZZO LAWRENCE L'
p1496
(dp1497
g3
I496
sg4
g5
sg6
I28093
sg7
g8
(g12
S'\x8a\xd3._/\x9c\x07A'
p1498
tp1499
Rp1500
sg18
I00
sg19
g5
sg20
S'larry.izzo@enron.com'
p1501
sg22
I312500
sg23
g5
sg24
g5
sg25
g8
(g12
S"\x7f\x86\xae\xc1'I2\xc1"
p1502
tp1503
Rp1504
sg29
I437
sg30
g8
(g12
S'\xaa\xfe\xcf(\xd8V9\xc1'
p1505
tp1506
Rp1507
sg34
I19
sg35
I1553729
sg36
g5
sg37
g5
sg38
I5819980
sg39
I28
sg40
I5
sg41
I3654808
sg42
I85274
sg43
I1979596
sg44
I2165172
ssS'TILNEY ELIZABETH A'
p1508
(dp1509
g3
I460
sg4
g5
sg6
g5
sg7
g8
(g12
S'Z\xf2Hz\xbcu$\xc1'
p1510
tp1511
Rp1512
sg18
I00
sg19
I-575000
sg20
S'elizabeth.tilney@enron.com'
p1513
sg22
I275000
sg23
g5
sg24
g5
sg25
g8
(g12
S'\xa5\x91Q\xe7X\xf4\x1bA'
p1514
tp1515
Rp1516
sg29
I379
sg30
g8
(g12
S'\x90\xc4|\xc1\xf6m\x1fA'
p1517
tp1518
Rp1519
sg34
I19
sg35
I152055
sg36
g5
sg37
I300000
sg38
I1168042
sg39
I10
sg40
I11
sg41
I576792
sg42
I247338
sg43
I399393
sg44
I591250
ssS'MARTIN AMANDA K'
p1520
(dp1521
g3
I1522
sg4
I85430
sg6
I8211
sg7
g8
(g12
S'\x80\xe9\xc6\xe1\x8f\x91 A'
p1522
tp1523
Rp1524
sg18
I00
sg19
g5
sg20
S'a..martin@enron.com'
p1525
sg22
I5145434
sg23
g5
sg24
g5
sg25
g8
(g12
S'`\\\xa4\xa3\xa7\xbf$\xc1'
p1526
tp1527
Rp1528
sg29
I477
sg30
g8
(g12
S'\xefO\xf2\xc6Z\xc7/\xc1'
p1529
tp1530
Rp1531
sg34
I230
sg35
I2818454
sg36
g5
sg37
g5
sg38
I2070306
sg39
I8
sg40
I0
sg41
g5
sg42
I349487
sg43
I8407016
sg44
I2070306
ssS'BUY RICHARD B'
p1532
(dp1533
g3
I3523
sg4
I649584
sg6
g5
sg7
g8
(g12
S'B\xb6h\x8bI\x04\x04A'
p1534
tp1535
Rp1536
sg18
I00
sg19
I-694862
sg20
S'rick.buy@enron.com'
p1537
sg22
I769862
sg23
g5
sg24
g5
sg25
g8
(g12
S'5]\xb8\xba"\x8a3A'
p1538
tp1539
Rp1540
sg29
I2333
sg30
g8
(g12
S'\x97\x9e\x88j\x8b\xb9,A'
p1541
tp1542
Rp1543
sg34
I1053
sg35
I400572
sg36
g5
sg37
I900000
sg38
I3444470
sg39
I156
sg40
I71
sg41
I901657
sg42
I330546
sg43
I2355702
sg44
I2542813
ssS'GRAMM WENDY L'
p1544
(dp1545
g3
g5
sg4
g5
sg6
g5
sg7
g8
(g12
S'\x00\xd1@\xd6\xeeh\xea@'
p1546
tp1547
Rp1548
sg18
I00
sg19
g5
sg20
g5
sg22
g5
sg23
g5
sg24
g5
sg25
g8
(g12
S'\x9c\xd5\xfayY\xec0\xc1'
p1549
tp1550
Rp1551
sg29
g5
sg30
g8
(g12
S'V\xf8\\\x1f\xb7g9\xc1'
p1552
tp1553
Rp1554
sg34
g5
sg35
g5
sg36
I119292
sg37
g5
sg38
g5
sg39
g5
sg40
g5
sg41
g5
sg42
g5
sg43
I119292
sg44
g5
ssS'CAUSEY RICHARD A'
p1555
(dp1556
g3
I1892
sg4
g5
sg6
I30674
sg7
g8
(g12
S'\xc3\x8f\xd3\x0b$\xab\xf8@'
p1557
tp1558
Rp1559
sg18
I01
sg19
I-235000
sg20
S'richard.causey@enron.com'
p1560
sg22
I350000
sg23
g5
sg24
g5
sg25
g8
(g12
S'T\x1e\x1f\r\xc3\x07,A'
p1561
tp1562
Rp1563
sg29
I1585
sg30
g8
(g12
S'\xc0?\x87*\x94\xbf8\xc1'
p1564
tp1565
Rp1566
sg34
I49
sg35
I307895
sg36
g5
sg37
I1000000
sg38
I2502063
sg39
I58
sg40
I12
sg41
I2502063
sg42
I415189
sg43
I1868758
sg44
g5
ssS'TAYLOR MITCHELL S'
p1567
(dp1568
g3
I533
sg4
I227449
sg6
g5
sg7
g8
(g12
S'{~<\x06\x19\xce\x00\xc1'
p1569
tp1570
Rp1571
sg18
I00
sg19
g5
sg20
S'mitchell.taylor@enron.com'
p1572
sg22
g5
sg23
g5
sg24
g5
sg25
g8
(g12
S'A\xb0\xd2a\xed\x02\xe1\xc0'
p1573
tp1574
Rp1575
sg29
I300
sg30
g8
(g12
S'\x87r\xe6\xeb3^7A'
p1576
tp1577
Rp1578
sg34
I29
sg35
g5
sg36
g5
sg37
I600000
sg38
I3745048
sg39
I0
sg40
I0
sg41
I563798
sg42
I265214
sg43
I1092663
sg44
I3181250
ssS'DONAHUE JR JEFFREY M'
p1579
(dp1580
g3
I865
sg4
g5
sg6
I96268
sg7
g8
(g12
S'\xb8i\x94\x86#\xbb\x16A'
p1581
tp1582
Rp1583
sg18
I00
sg19
I-300000
sg20
S'jeff.donahue@enron.com'
p1584
sg22
g5
sg23
g5
sg24
g5
sg25
g8
(g12
S'\xbf2%\xdf\x8d\x06\xe8\xc0'
p1585
tp1586
Rp1587
sg29
I772
sg30
g8
(g12
S'\x12\n}JRq*\xc1'
p1588
tp1589
Rp1590
sg34
I22
sg35
I891
sg36
g5
sg37
I800000
sg38
I1080988
sg39
I188
sg40
I11
sg41
I315068
sg42
I278601
sg43
I875760
sg44
I765920
ssS'GLISAN JR BEN F'
p1591
(dp1592
g3
I873
sg4
g5
sg6
I125978
sg7
g8
(g12
S'\xd3"\xa8\xfc\xdb\xb5\xf4\xc0'
p1593
tp1594
Rp1595
sg18
I01
sg19
g5
sg20
S'ben.glisan@enron.com'
p1596
sg22
I71023
sg23
g5
sg24
g5
sg25
g8
(g12
S'\xc1\xa5.\nd\x92\x05A'
p1597
tp1598
Rp1599
sg29
I874
sg30
g8
(g12
S'hY\x1d5z:3\xc1'
p1600
tp1601
Rp1602
sg34
I16
sg35
I200308
sg36
g5
sg37
I600000
sg38
I778546
sg39
I52
sg40
I6
sg41
I393818
sg42
I274975
sg43
I1272284
sg44
I384728
ss.